---
triple:          'arm64-apple-darwin'
binary-path:     prog
relocations:
  - { offset: 0x26, size: 0x8, addend: 0x0, symName: _main, symObjAddr: 0x0, symBinAddr: 0x100001AF4, symSize: 0x394 }
  - { offset: 0x6DF, size: 0x8, addend: 0x0, symName: _main, symObjAddr: 0x0, symBinAddr: 0x100001AF4, symSize: 0x394 }
  - { offset: 0x937, size: 0x8, addend: 0x0, symName: __ZN8Vector3fC1Efff, symObjAddr: 0x394, symBinAddr: 0x100001E88, symSize: 0x44 }
  - { offset: 0x989, size: 0x8, addend: 0x0, symName: __ZN8Vector3fC1Ev, symObjAddr: 0x3D8, symBinAddr: 0x100001ECC, symSize: 0x2C }
  - { offset: 0xA00, size: 0x8, addend: 0x0, symName: __ZN6CameraC1E8Vector3fS0_, symObjAddr: 0x404, symBinAddr: 0x100001EF8, symSize: 0x5C }
  - { offset: 0xAB7, size: 0x8, addend: 0x0, symName: __ZN8MaterialC1Effff, symObjAddr: 0x460, symBinAddr: 0x100001F54, symSize: 0x4C }
  - { offset: 0xCA8, size: 0x8, addend: 0x0, symName: __ZN6SphereC1E8Vector3ff8Material, symObjAddr: 0x4AC, symBinAddr: 0x100001FA0, symSize: 0x6C }
  - { offset: 0xCFD, size: 0x8, addend: 0x0, symName: __ZNK8Vector3fmiES_, symObjAddr: 0x518, symBinAddr: 0x10000200C, symSize: 0x78 }
  - { offset: 0xD3D, size: 0x8, addend: 0x0, symName: __ZN5Ray3fC1E8Vector3fS0_, symObjAddr: 0x590, symBinAddr: 0x100002084, symSize: 0x5C }
  - { offset: 0xD81, size: 0x8, addend: 0x0, symName: __ZN8Vector3fC2Efff, symObjAddr: 0x5EC, symBinAddr: 0x1000020E0, symSize: 0x38 }
  - { offset: 0xDD3, size: 0x8, addend: 0x0, symName: __ZN8Vector3fC2Ev, symObjAddr: 0x624, symBinAddr: 0x100002118, symSize: 0x24 }
  - { offset: 0xDFB, size: 0x8, addend: 0x0, symName: __ZN6CameraC2E8Vector3fS0_, symObjAddr: 0x648, symBinAddr: 0x10000213C, symSize: 0x70 }
  - { offset: 0xE3F, size: 0x8, addend: 0x0, symName: __ZN8MaterialC2Effff, symObjAddr: 0x6B8, symBinAddr: 0x1000021AC, symSize: 0x44 }
  - { offset: 0xE9F, size: 0x8, addend: 0x0, symName: __ZN6SphereC2E8Vector3ff8Material, symObjAddr: 0x6FC, symBinAddr: 0x1000021F0, symSize: 0x88 }
  - { offset: 0xEF4, size: 0x8, addend: 0x0, symName: __ZN5ShapeC2Ev, symObjAddr: 0x784, symBinAddr: 0x100002278, symSize: 0x40 }
  - { offset: 0xF1E, size: 0x8, addend: 0x0, symName: __ZN8MaterialC1Ev, symObjAddr: 0x7C4, symBinAddr: 0x1000022B8, symSize: 0x2C }
  - { offset: 0xF46, size: 0x8, addend: 0x0, symName: __ZN8MaterialC2Ev, symObjAddr: 0x7F0, symBinAddr: 0x1000022E4, symSize: 0x28 }
  - { offset: 0xF6E, size: 0x8, addend: 0x0, symName: __ZN5Ray3fC2E8Vector3fS0_, symObjAddr: 0x818, symBinAddr: 0x10000230C, symSize: 0x70 }
  - { offset: 0xC871, size: 0x8, addend: 0x0, symName: __ZNSt3__1ltB8ne180100IPfEEbRKNS_11__wrap_iterIT_EES6_, symObjAddr: 0x17F0, symBinAddr: 0x100003AC8, symSize: 0x48 }
  - { offset: 0xC8B9, size: 0x8, addend: 0x0, symName: __ZNSt3__16__math4sqrtB8ne180100Ef, symObjAddr: 0x210C, symBinAddr: 0x10000437C, symSize: 0x18 }
  - { offset: 0xC92A, size: 0x8, addend: 0x0, symName: __ZNSt3__112__to_addressB8ne180100IfEEPT_S2_, symObjAddr: 0x257C, symBinAddr: 0x1000047B4, symSize: 0x14 }
  - { offset: 0xC95F, size: 0x8, addend: 0x0, symName: __ZNSt3__130__libcpp_is_constant_evaluatedB8ne180100Ev, symObjAddr: 0x2614, symBinAddr: 0x10000484C, symSize: 0xC }
  - { offset: 0xC97C, size: 0x8, addend: 0x0, symName: __ZNSt3__119__libcpp_deallocateB8ne180100EPvmm, symObjAddr: 0x2620, symBinAddr: 0x100004858, symSize: 0x30 }
  - { offset: 0xC9C4, size: 0x8, addend: 0x0, symName: __ZNSt3__127__do_deallocate_handle_sizeB8ne180100IJEEEvPvmDpT_, symObjAddr: 0x2650, symBinAddr: 0x100004888, symSize: 0x28 }
  - { offset: 0xCA02, size: 0x8, addend: 0x0, symName: __ZNSt3__124__libcpp_operator_deleteB8ne180100IJPvEEEvDpT_, symObjAddr: 0x2678, symBinAddr: 0x1000048B0, symSize: 0x24 }
  - { offset: 0xCA37, size: 0x8, addend: 0x0, symName: __ZNSt3__112__to_addressB8ne180100INS_6vectorI8Vector3fNS_9allocatorIS2_EEEEEEPT_S7_, symObjAddr: 0x2B3C, symBinAddr: 0x100004D74, symSize: 0x14 }
  - { offset: 0xCA6C, size: 0x8, addend: 0x0, symName: __ZNSt3__112__to_addressB8ne180100I8Vector3fEEPT_S3_, symObjAddr: 0x308C, symBinAddr: 0x1000052C4, symSize: 0x14 }
  - { offset: 0xCAA1, size: 0x8, addend: 0x0, symName: __ZNSt3__13maxB8ne180100ImEERKT_S3_S3_, symObjAddr: 0x37BC, symBinAddr: 0x1000059F4, symSize: 0x2C }
  - { offset: 0xCAE4, size: 0x8, addend: 0x0, symName: __ZNSt3__13minB8ne180100ImEERKT_S3_S3_, symObjAddr: 0x37E8, symBinAddr: 0x100005A20, symSize: 0x2C }
  - { offset: 0xCD28, size: 0x8, addend: 0x0, symName: __ZNSt3__13minB8ne180100ImNS_6__lessIvvEEEERKT_S5_S5_T0_, symObjAddr: 0x3874, symBinAddr: 0x100005AAC, symSize: 0x54 }
  - { offset: 0xCDC7, size: 0x8, addend: 0x0, symName: __ZNSt3__120__throw_length_errorB8ne180100EPKc, symObjAddr: 0x3950, symBinAddr: 0x100005B88, symSize: 0x64 }
  - { offset: 0xCDEF, size: 0x8, addend: 0x0, symName: __ZNSt3__13maxB8ne180100ImNS_6__lessIvvEEEERKT_S5_S5_T0_, symObjAddr: 0x3A2C, symBinAddr: 0x100005C64, symSize: 0x54 }
  - { offset: 0xCE49, size: 0x8, addend: 0x0, symName: __ZNSt3__119__allocate_at_leastB8ne180100INS_9allocatorIfEEEENS_19__allocation_resultINS_16allocator_traitsIT_E7pointerEEERS5_m, symObjAddr: 0x3B90, symBinAddr: 0x100005DC8, symSize: 0x40 }
  - { offset: 0xCE8C, size: 0x8, addend: 0x0, symName: __ZNSt3__117__libcpp_allocateB8ne180100Emm, symObjAddr: 0x3D40, symBinAddr: 0x100005F78, symSize: 0x28 }
  - { offset: 0xCEC9, size: 0x8, addend: 0x0, symName: __ZNSt3__121__libcpp_operator_newB8ne180100IJmEEEPvDpT_, symObjAddr: 0x3D68, symBinAddr: 0x100005FA0, symSize: 0x24 }
  - { offset: 0xCF02, size: 0x8, addend: 0x0, symName: __ZNSt3__142__uninitialized_allocator_move_if_noexceptB8ne180100INS_9allocatorIfEENS_16reverse_iteratorIPfEES5_fvEET1_RT_T0_S9_S6_, symObjAddr: 0x3DF0, symBinAddr: 0x100006028, symSize: 0xE8 }
  - { offset: 0xCF7F, size: 0x8, addend: 0x0, symName: __ZNSt3__14swapB8ne180100IPfEEvRT_S3_, symObjAddr: 0x3F24, symBinAddr: 0x10000615C, symSize: 0x3C }
  - { offset: 0xCFD0, size: 0x8, addend: 0x0, symName: __ZNSt3__1neB8ne180100IPfS1_EEbRKNS_16reverse_iteratorIT_EERKNS2_IT0_EE, symObjAddr: 0x3F74, symBinAddr: 0x1000061AC, symSize: 0x48 }
  - { offset: 0xD01C, size: 0x8, addend: 0x0, symName: __ZNSt3__114__construct_atB8ne180100IfJfEPfEEPT_S3_DpOT0_, symObjAddr: 0x3FBC, symBinAddr: 0x1000061F4, symSize: 0x24 }
  - { offset: 0xD06F, size: 0x8, addend: 0x0, symName: __ZNSt3__112__to_addressB8ne180100INS_16reverse_iteratorIPfEEvEEu7__decayIDTclsr19__to_address_helperIT_EE6__callclsr3stdE7declvalIRKS4_EEEEES6_, symObjAddr: 0x3FE0, symBinAddr: 0x100006218, symSize: 0x24 }
  - { offset: 0xD0A5, size: 0x8, addend: 0x0, symName: __ZNSt3__14moveB8ne180100INS_16reverse_iteratorIPfEES3_EET0_T_S5_S4_, symObjAddr: 0x404C, symBinAddr: 0x100006284, symSize: 0x78 }
  - { offset: 0xD128, size: 0x8, addend: 0x0, symName: __ZNSt3__16__moveB8ne180100INS_17_ClassicAlgPolicyENS_16reverse_iteratorIPfEES4_S4_EENS_4pairIT0_T2_EES6_T1_S7_, symObjAddr: 0x4134, symBinAddr: 0x10000636C, symSize: 0x64 }
  - { offset: 0xD194, size: 0x8, addend: 0x0, symName: __ZNSt3__123__dispatch_copy_or_moveB8ne180100INS_17_ClassicAlgPolicyENS_11__move_loopIS1_EENS_14__move_trivialENS_16reverse_iteratorIPfEES7_S7_EENS_4pairIT2_T4_EES9_T3_SA_, symObjAddr: 0x4198, symBinAddr: 0x1000063D0, symSize: 0x64 }
  - { offset: 0xD212, size: 0x8, addend: 0x0, symName: __ZNSt3__121__unwrap_and_dispatchB8ne180100INS_10__overloadINS_11__move_loopINS_17_ClassicAlgPolicyEEENS_14__move_trivialEEENS_16reverse_iteratorIPfEES9_S9_Li0EEENS_4pairIT0_T2_EESB_T1_SC_, symObjAddr: 0x41FC, symBinAddr: 0x100006434, symSize: 0x12C }
  - { offset: 0xD2A2, size: 0x8, addend: 0x0, symName: __ZNSt3__114__unwrap_rangeB8ne180100INS_16reverse_iteratorIPfEES3_EENS_4pairIT0_S5_EET_S7_, symObjAddr: 0x4328, symBinAddr: 0x100006560, symSize: 0x84 }
  - { offset: 0xD474, size: 0x8, addend: 0x0, symName: __ZNSt3__113__unwrap_iterB8ne180100INS_16reverse_iteratorIPfEENS_18__unwrap_iter_implIS3_Lb0EEELi0EEEDTclsrT0_8__unwrapclsr3stdE7declvalIT_EEEES7_, symObjAddr: 0x444C, symBinAddr: 0x100006684, symSize: 0x44 }
  - { offset: 0xD4B8, size: 0x8, addend: 0x0, symName: __ZNSt3__19make_pairB8ne180100INS_16reverse_iteratorIPfEES3_EENS_4pairINS_18__unwrap_ref_decayIT_E4typeENS5_IT0_E4typeEEEOS6_OS9_, symObjAddr: 0x4490, symBinAddr: 0x1000066C8, symSize: 0x38 }
  - { offset: 0xD507, size: 0x8, addend: 0x0, symName: __ZNSt3__114__rewrap_rangeB8ne180100INS_16reverse_iteratorIPfEES3_EET_S4_T0_, symObjAddr: 0x44C8, symBinAddr: 0x100006700, symSize: 0x5C }
  - { offset: 0xD553, size: 0x8, addend: 0x0, symName: __ZNSt3__113__rewrap_iterB8ne180100INS_16reverse_iteratorIPfEES3_NS_18__unwrap_iter_implIS3_Lb0EEEEET_S6_T0_, symObjAddr: 0x4524, symBinAddr: 0x10000675C, symSize: 0x88 }
  - { offset: 0xD6DA, size: 0x8, addend: 0x0, symName: __ZNSt3__119__allocate_at_leastB8ne180100INS_9allocatorI8Vector3fEEEENS_19__allocation_resultINS_16allocator_traitsIT_E7pointerEEERS6_m, symObjAddr: 0x5234, symBinAddr: 0x10000746C, symSize: 0x40 }
  - { offset: 0xD71D, size: 0x8, addend: 0x0, symName: __ZNSt3__142__uninitialized_allocator_move_if_noexceptB8ne180100INS_9allocatorI8Vector3fEENS_16reverse_iteratorIPS2_EES6_S2_vEET1_RT_T0_SA_S7_, symObjAddr: 0x541C, symBinAddr: 0x100007654, symSize: 0xE8 }
  - { offset: 0xD79A, size: 0x8, addend: 0x0, symName: __ZNSt3__14swapB8ne180100IP8Vector3fEEvRT_S4_, symObjAddr: 0x5550, symBinAddr: 0x100007788, symSize: 0x3C }
  - { offset: 0xD7EB, size: 0x8, addend: 0x0, symName: __ZNSt3__1neB8ne180100IP8Vector3fS2_EEbRKNS_16reverse_iteratorIT_EERKNS3_IT0_EE, symObjAddr: 0x55A0, symBinAddr: 0x1000077D8, symSize: 0x48 }
  - { offset: 0xD837, size: 0x8, addend: 0x0, symName: __ZNSt3__114__construct_atB8ne180100I8Vector3fJS1_EPS1_EEPT_S4_DpOT0_, symObjAddr: 0x55E8, symBinAddr: 0x100007820, symSize: 0x2C }
  - { offset: 0xD88A, size: 0x8, addend: 0x0, symName: __ZNSt3__112__to_addressB8ne180100INS_16reverse_iteratorIP8Vector3fEEvEEu7__decayIDTclsr19__to_address_helperIT_EE6__callclsr3stdE7declvalIRKS5_EEEEES7_, symObjAddr: 0x5614, symBinAddr: 0x10000784C, symSize: 0x24 }
  - { offset: 0xD8C0, size: 0x8, addend: 0x0, symName: __ZNSt3__14moveB8ne180100INS_16reverse_iteratorIP8Vector3fEES4_EET0_T_S6_S5_, symObjAddr: 0x5680, symBinAddr: 0x1000078B8, symSize: 0x78 }
  - { offset: 0xD943, size: 0x8, addend: 0x0, symName: __ZNSt3__16__moveB8ne180100INS_17_ClassicAlgPolicyENS_16reverse_iteratorIP8Vector3fEES5_S5_EENS_4pairIT0_T2_EES7_T1_S8_, symObjAddr: 0x5768, symBinAddr: 0x1000079A0, symSize: 0x64 }
  - { offset: 0xD9AF, size: 0x8, addend: 0x0, symName: __ZNSt3__123__dispatch_copy_or_moveB8ne180100INS_17_ClassicAlgPolicyENS_11__move_loopIS1_EENS_14__move_trivialENS_16reverse_iteratorIP8Vector3fEES8_S8_EENS_4pairIT2_T4_EESA_T3_SB_, symObjAddr: 0x57CC, symBinAddr: 0x100007A04, symSize: 0x64 }
  - { offset: 0xDA2D, size: 0x8, addend: 0x0, symName: __ZNSt3__121__unwrap_and_dispatchB8ne180100INS_10__overloadINS_11__move_loopINS_17_ClassicAlgPolicyEEENS_14__move_trivialEEENS_16reverse_iteratorIP8Vector3fEESA_SA_Li0EEENS_4pairIT0_T2_EESC_T1_SD_, symObjAddr: 0x5830, symBinAddr: 0x100007A68, symSize: 0x12C }
  - { offset: 0xDABD, size: 0x8, addend: 0x0, symName: __ZNSt3__114__unwrap_rangeB8ne180100INS_16reverse_iteratorIP8Vector3fEES4_EENS_4pairIT0_S6_EET_S8_, symObjAddr: 0x595C, symBinAddr: 0x100007B94, symSize: 0x84 }
  - { offset: 0xDBB6, size: 0x8, addend: 0x0, symName: __ZNSt3__113__unwrap_iterB8ne180100INS_16reverse_iteratorIP8Vector3fEENS_18__unwrap_iter_implIS4_Lb0EEELi0EEEDTclsrT0_8__unwrapclsr3stdE7declvalIT_EEEES8_, symObjAddr: 0x5A88, symBinAddr: 0x100007CC0, symSize: 0x44 }
  - { offset: 0xDBFA, size: 0x8, addend: 0x0, symName: __ZNSt3__19make_pairB8ne180100INS_16reverse_iteratorIP8Vector3fEES4_EENS_4pairINS_18__unwrap_ref_decayIT_E4typeENS6_IT0_E4typeEEEOS7_OSA_, symObjAddr: 0x5ACC, symBinAddr: 0x100007D04, symSize: 0x38 }
  - { offset: 0xDC49, size: 0x8, addend: 0x0, symName: __ZNSt3__114__rewrap_rangeB8ne180100INS_16reverse_iteratorIP8Vector3fEES4_EET_S5_T0_, symObjAddr: 0x5B04, symBinAddr: 0x100007D3C, symSize: 0x5C }
  - { offset: 0xDC95, size: 0x8, addend: 0x0, symName: __ZNSt3__113__rewrap_iterB8ne180100INS_16reverse_iteratorIP8Vector3fEES4_NS_18__unwrap_iter_implIS4_Lb0EEEEET_S7_T0_, symObjAddr: 0x5B60, symBinAddr: 0x100007D98, symSize: 0x88 }
  - { offset: 0xDD3D, size: 0x8, addend: 0x0, symName: __ZNSt3__122__make_exception_guardB8ne180100INS_6vectorI8Vector3fNS_9allocatorIS2_EEE16__destroy_vectorEEENS_28__exception_guard_exceptionsIT_EES8_, symObjAddr: 0x660C, symBinAddr: 0x100008844, symSize: 0x40 }
  - { offset: 0xDD72, size: 0x8, addend: 0x0, symName: __ZNSt3__130__uninitialized_allocator_copyB8ne180100INS_9allocatorI8Vector3fEEPS2_S4_S4_EET2_RT_T0_T1_S5_, symObjAddr: 0x6834, symBinAddr: 0x100008A6C, symSize: 0x80 }
  - { offset: 0xDE0F, size: 0x8, addend: 0x0, symName: __ZNSt3__114__unwrap_rangeB8ne180100IP8Vector3fS2_EENS_4pairIT0_S4_EET_S6_, symObjAddr: 0x68B4, symBinAddr: 0x100008AEC, symSize: 0x60 }
  - { offset: 0xDE5B, size: 0x8, addend: 0x0, symName: __ZNSt3__135__uninitialized_allocator_copy_implB8ne180100INS_9allocatorI8Vector3fEEPS2_S4_S4_EET2_RT_T0_T1_S5_, symObjAddr: 0x6914, symBinAddr: 0x100008B4C, symSize: 0xFC }
  - { offset: 0xDEF9, size: 0x8, addend: 0x0, symName: __ZNSt3__113__unwrap_iterB8ne180100IP8Vector3fNS_18__unwrap_iter_implIS2_Lb1EEELi0EEEDTclsrT0_8__unwrapclsr3stdE7declvalIT_EEEES6_, symObjAddr: 0x6A10, symBinAddr: 0x100008C48, symSize: 0x24 }
  - { offset: 0xDF3D, size: 0x8, addend: 0x0, symName: __ZNSt3__113__rewrap_iterB8ne180100IP8Vector3fS2_NS_18__unwrap_iter_implIS2_Lb1EEEEET_S5_T0_, symObjAddr: 0x6A34, symBinAddr: 0x100008C6C, symSize: 0x50 }
  - { offset: 0xDF92, size: 0x8, addend: 0x0, symName: __ZNSt3__19make_pairB8ne180100IP8Vector3fS2_EENS_4pairINS_18__unwrap_ref_decayIT_E4typeENS4_IT0_E4typeEEEOS5_OS8_, symObjAddr: 0x6A84, symBinAddr: 0x100008CBC, symSize: 0x38 }
  - { offset: 0xE08E, size: 0x8, addend: 0x0, symName: __ZNSt3__122__make_exception_guardB8ne180100INS_29_AllocatorDestroyRangeReverseINS_9allocatorI8Vector3fEEPS3_EEEENS_28__exception_guard_exceptionsIT_EES8_, symObjAddr: 0x6B2C, symBinAddr: 0x100008D64, symSize: 0x4C }
  - { offset: 0xE0C4, size: 0x8, addend: 0x0, symName: __ZNSt3__119__allocator_destroyB8ne180100INS_9allocatorI8Vector3fEENS_16reverse_iteratorIPS2_EES6_EEvRT_T0_T1_, symObjAddr: 0x6DB4, symBinAddr: 0x100008FEC, symSize: 0x70 }
  - { offset: 0xE17A, size: 0x8, addend: 0x0, symName: __ZNSt3__119__allocate_at_leastB8ne180100INS_9allocatorINS_6vectorI8Vector3fNS1_IS3_EEEEEEEENS_19__allocation_resultINS_16allocator_traitsIT_E7pointerEEERS9_m, symObjAddr: 0x73AC, symBinAddr: 0x1000095E4, symSize: 0x40 }
  - { offset: 0xE1BD, size: 0x8, addend: 0x0, symName: __ZNSt3__142__uninitialized_allocator_move_if_noexceptB8ne180100INS_9allocatorINS_6vectorI8Vector3fNS1_IS3_EEEEEENS_16reverse_iteratorIPS5_EES9_S9_EET2_RT_T0_T1_SA_, symObjAddr: 0x7594, symBinAddr: 0x1000097CC, symSize: 0x134 }
  - { offset: 0xE25D, size: 0x8, addend: 0x0, symName: __ZNSt3__14swapB8ne180100IPNS_6vectorI8Vector3fNS_9allocatorIS2_EEEEEEvRT_S8_, symObjAddr: 0x7714, symBinAddr: 0x10000994C, symSize: 0x3C }
  - { offset: 0xE2AE, size: 0x8, addend: 0x0, symName: __ZNSt3__122__make_exception_guardB8ne180100INS_29_AllocatorDestroyRangeReverseINS_9allocatorINS_6vectorI8Vector3fNS2_IS4_EEEEEENS_16reverse_iteratorIPS6_EEEEEENS_28__exception_guard_exceptionsIT_EESD_, symObjAddr: 0x7764, symBinAddr: 0x10000999C, symSize: 0x4C }
  - { offset: 0xE2E4, size: 0x8, addend: 0x0, symName: __ZNSt3__1neB8ne180100IPNS_6vectorI8Vector3fNS_9allocatorIS2_EEEES6_EEbRKNS_16reverse_iteratorIT_EERKNS7_IT0_EE, symObjAddr: 0x77F4, symBinAddr: 0x100009A2C, symSize: 0x48 }
  - { offset: 0xE330, size: 0x8, addend: 0x0, symName: __ZNSt3__112__to_addressB8ne180100INS_16reverse_iteratorIPNS_6vectorI8Vector3fNS_9allocatorIS3_EEEEEEvEEu7__decayIDTclsr19__to_address_helperIT_EE6__callclsr3stdE7declvalIRKS9_EEEEESB_, symObjAddr: 0x783C, symBinAddr: 0x100009A74, symSize: 0x24 }
  - { offset: 0xE38F, size: 0x8, addend: 0x0, symName: __ZNSt3__119__allocator_destroyB8ne180100INS_9allocatorINS_6vectorI8Vector3fNS1_IS3_EEEEEENS_16reverse_iteratorINS7_IPS5_EEEESA_EEvRT_T0_T1_, symObjAddr: 0x7AF8, symBinAddr: 0x100009D30, symSize: 0x70 }
  - { offset: 0xE3F4, size: 0x8, addend: 0x0, symName: __ZNSt3__1neB8ne180100INS_16reverse_iteratorIPNS_6vectorI8Vector3fNS_9allocatorIS3_EEEEEES8_EEbRKNS1_IT_EERKNS1_IT0_EE, symObjAddr: 0x7BA4, symBinAddr: 0x100009DDC, symSize: 0x60 }
  - { offset: 0xE440, size: 0x8, addend: 0x0, symName: __ZNSt3__112__to_addressB8ne180100INS_16reverse_iteratorINS1_IPNS_6vectorI8Vector3fNS_9allocatorIS3_EEEEEEEEvEEu7__decayIDTclsr19__to_address_helperIT_EE6__callclsr3stdE7declvalIRKSA_EEEEESC_, symObjAddr: 0x7C04, symBinAddr: 0x100009E3C, symSize: 0x24 }
  - { offset: 0xE49F, size: 0x8, addend: 0x0, symName: __ZNSt3__1miB8ne180100IPKfS2_EENS_11__wrap_iterIT_E15difference_typeERKS5_RKNS3_IT0_EE, symObjAddr: 0x80A8, symBinAddr: 0x10000A2E0, symSize: 0x48 }
  - { offset: 0xE4EB, size: 0x8, addend: 0x0, symName: __ZNSt3__14moveB8ne180100IPfS1_EET0_T_S3_S2_, symObjAddr: 0x8168, symBinAddr: 0x10000A3A0, symSize: 0x40 }
  - { offset: 0xE545, size: 0x8, addend: 0x0, symName: __ZNSt3__16__moveB8ne180100INS_17_ClassicAlgPolicyEPfS2_S2_EENS_4pairIT0_T2_EES4_T1_S5_, symObjAddr: 0x8288, symBinAddr: 0x10000A4C0, symSize: 0x44 }
  - { offset: 0xE5B1, size: 0x8, addend: 0x0, symName: __ZNSt3__123__dispatch_copy_or_moveB8ne180100INS_17_ClassicAlgPolicyENS_11__move_loopIS1_EENS_14__move_trivialEPfS5_S5_EENS_4pairIT2_T4_EES7_T3_S8_, symObjAddr: 0x82CC, symBinAddr: 0x10000A504, symSize: 0x44 }
  - { offset: 0xE62F, size: 0x8, addend: 0x0, symName: __ZNSt3__121__unwrap_and_dispatchB8ne180100INS_10__overloadINS_11__move_loopINS_17_ClassicAlgPolicyEEENS_14__move_trivialEEEPfS7_S7_Li0EEENS_4pairIT0_T2_EES9_T1_SA_, symObjAddr: 0x8310, symBinAddr: 0x10000A548, symSize: 0xB4 }
  - { offset: 0xE6BD, size: 0x8, addend: 0x0, symName: __ZNSt3__114__unwrap_rangeB8ne180100IPfS1_EENS_4pairIT0_S3_EET_S5_, symObjAddr: 0x83C4, symBinAddr: 0x10000A5FC, symSize: 0x60 }
  - { offset: 0xE7FC, size: 0x8, addend: 0x0, symName: __ZNSt3__113__unwrap_iterB8ne180100IPfNS_18__unwrap_iter_implIS1_Lb1EEELi0EEEDTclsrT0_8__unwrapclsr3stdE7declvalIT_EEEES5_, symObjAddr: 0x846C, symBinAddr: 0x10000A6A4, symSize: 0x24 }
  - { offset: 0xE840, size: 0x8, addend: 0x0, symName: __ZNSt3__19make_pairB8ne180100IPfS1_EENS_4pairINS_18__unwrap_ref_decayIT_E4typeENS3_IT0_E4typeEEEOS4_OS7_, symObjAddr: 0x8490, symBinAddr: 0x10000A6C8, symSize: 0x38 }
  - { offset: 0xE88F, size: 0x8, addend: 0x0, symName: __ZNSt3__114__rewrap_rangeB8ne180100IPfS1_EET_S2_T0_, symObjAddr: 0x84C8, symBinAddr: 0x10000A700, symSize: 0x2C }
  - { offset: 0xE8DB, size: 0x8, addend: 0x0, symName: __ZNSt3__113__rewrap_iterB8ne180100IPfS1_NS_18__unwrap_iter_implIS1_Lb1EEEEET_S4_T0_, symObjAddr: 0x84F4, symBinAddr: 0x10000A72C, symSize: 0x50 }
  - { offset: 0xE930, size: 0x8, addend: 0x0, symName: __ZNSt3__119__copy_trivial_implB8ne180100IffEENS_4pairIPT_PT0_EES3_S3_S5_, symObjAddr: 0x8544, symBinAddr: 0x10000A77C, symSize: 0x80 }
  - { offset: 0xE998, size: 0x8, addend: 0x0, symName: __ZNSt3__119__constexpr_memmoveB8ne180100IffLi0EEEPT_S2_PT0_NS_15__element_countE, symObjAddr: 0x85C4, symBinAddr: 0x10000A7FC, symSize: 0xA0 }
  - { offset: 0xEA06, size: 0x8, addend: 0x0, symName: __ZNSt3__19make_pairB8ne180100IRPfS1_EENS_4pairINS_18__unwrap_ref_decayIT_E4typeENS4_IT0_E4typeEEEOS5_OS8_, symObjAddr: 0x8664, symBinAddr: 0x10000A89C, symSize: 0x38 }
  - { offset: 0xEAA8, size: 0x8, addend: 0x0, symName: __ZNSt3__1miB8ne180100IPKNS_6vectorI8Vector3fNS_9allocatorIS2_EEEES7_EENS_11__wrap_iterIT_E15difference_typeERKSA_RKNS8_IT0_EE, symObjAddr: 0x87BC, symBinAddr: 0x10000A9F4, symSize: 0x48 }
  - { offset: 0xEAF4, size: 0x8, addend: 0x0, symName: __ZNSt3__14moveB8ne180100IPNS_6vectorI8Vector3fNS_9allocatorIS2_EEEES6_EET0_T_S8_S7_, symObjAddr: 0x887C, symBinAddr: 0x10000AAB4, symSize: 0x40 }
  - { offset: 0xEB4E, size: 0x8, addend: 0x0, symName: __ZNSt3__16__moveB8ne180100INS_17_ClassicAlgPolicyEPNS_6vectorI8Vector3fNS_9allocatorIS3_EEEES7_S7_EENS_4pairIT0_T2_EES9_T1_SA_, symObjAddr: 0x899C, symBinAddr: 0x10000ABD4, symSize: 0x44 }
  - { offset: 0xEBBA, size: 0x8, addend: 0x0, symName: __ZNSt3__123__dispatch_copy_or_moveB8ne180100INS_17_ClassicAlgPolicyENS_11__move_loopIS1_EENS_14__move_trivialEPNS_6vectorI8Vector3fNS_9allocatorIS6_EEEESA_SA_EENS_4pairIT2_T4_EESC_T3_SD_, symObjAddr: 0x89E0, symBinAddr: 0x10000AC18, symSize: 0x44 }
  - { offset: 0xEC38, size: 0x8, addend: 0x0, symName: __ZNSt3__121__unwrap_and_dispatchB8ne180100INS_10__overloadINS_11__move_loopINS_17_ClassicAlgPolicyEEENS_14__move_trivialEEEPNS_6vectorI8Vector3fNS_9allocatorIS8_EEEESC_SC_Li0EEENS_4pairIT0_T2_EESE_T1_SF_, symObjAddr: 0x8A24, symBinAddr: 0x10000AC5C, symSize: 0xB4 }
  - { offset: 0xECC6, size: 0x8, addend: 0x0, symName: __ZNSt3__114__unwrap_rangeB8ne180100IPNS_6vectorI8Vector3fNS_9allocatorIS2_EEEES6_EENS_4pairIT0_S8_EET_SA_, symObjAddr: 0x8AD8, symBinAddr: 0x10000AD10, symSize: 0x60 }
  - { offset: 0xEDBF, size: 0x8, addend: 0x0, symName: __ZNSt3__113__unwrap_iterB8ne180100IPNS_6vectorI8Vector3fNS_9allocatorIS2_EEEENS_18__unwrap_iter_implIS6_Lb1EEELi0EEEDTclsrT0_8__unwrapclsr3stdE7declvalIT_EEEESA_, symObjAddr: 0x8BC8, symBinAddr: 0x10000AE00, symSize: 0x24 }
  - { offset: 0xEE03, size: 0x8, addend: 0x0, symName: __ZNSt3__19make_pairB8ne180100IPNS_6vectorI8Vector3fNS_9allocatorIS2_EEEES6_EENS_4pairINS_18__unwrap_ref_decayIT_E4typeENS8_IT0_E4typeEEEOS9_OSC_, symObjAddr: 0x8BEC, symBinAddr: 0x10000AE24, symSize: 0x38 }
  - { offset: 0xEE52, size: 0x8, addend: 0x0, symName: __ZNSt3__114__rewrap_rangeB8ne180100IPNS_6vectorI8Vector3fNS_9allocatorIS2_EEEES6_EET_S7_T0_, symObjAddr: 0x8C24, symBinAddr: 0x10000AE5C, symSize: 0x2C }
  - { offset: 0xEE9E, size: 0x8, addend: 0x0, symName: __ZNSt3__113__rewrap_iterB8ne180100IPNS_6vectorI8Vector3fNS_9allocatorIS2_EEEES6_NS_18__unwrap_iter_implIS6_Lb1EEEEET_S9_T0_, symObjAddr: 0x8C50, symBinAddr: 0x10000AE88, symSize: 0x50 }
  - { offset: 0xFCA4, size: 0x8, addend: 0x0, symName: __ZSt28__throw_bad_array_new_lengthB8ne180100v, symObjAddr: 0x3D0C, symBinAddr: 0x100005F44, symSize: 0x34 }
  - { offset: 0x1037E, size: 0x8, addend: 0x0, symName: __ZNSt3__16vectorIfNS_9allocatorIfEEE26__swap_out_circular_bufferERNS_14__split_bufferIfRS2_EE, symObjAddr: 0x35F0, symBinAddr: 0x100005828, symSize: 0x110 }
  - { offset: 0x103D4, size: 0x8, addend: 0x0, symName: __ZNSt3__16vectorI8Vector3fNS_9allocatorIS1_EEE26__swap_out_circular_bufferERNS_14__split_bufferIS1_RS3_EE, symObjAddr: 0x4EB0, symBinAddr: 0x1000070E8, symSize: 0x110 }
  - { offset: 0x1046D, size: 0x8, addend: 0x0, symName: __ZNSt3__16vectorINS0_I8Vector3fNS_9allocatorIS1_EEEENS2_IS4_EEE26__swap_out_circular_bufferERNS_14__split_bufferIS4_RS5_EE, symObjAddr: 0x7028, symBinAddr: 0x100009260, symSize: 0x110 }
  - { offset: 0x105D8, size: 0x8, addend: 0x0, symName: __ZN4Quad6is_hitE5Ray3f, symObjAddr: 0x0, symBinAddr: 0x10000237C, symSize: 0x28 }
  - { offset: 0x1060E, size: 0x8, addend: 0x0, symName: __ZN6Sphere7reflectE5Ray3f, symObjAddr: 0x28, symBinAddr: 0x1000023A4, symSize: 0x2C }
  - { offset: 0x10644, size: 0x8, addend: 0x0, symName: __ZN4Quad7reflectE5Ray3f, symObjAddr: 0x54, symBinAddr: 0x1000023D0, symSize: 0x2C }
  - { offset: 0x1067A, size: 0x8, addend: 0x0, symName: __ZN6Sphere6is_hitE5Ray3f, symObjAddr: 0x80, symBinAddr: 0x1000023FC, symSize: 0x214 }
  - { offset: 0x106E8, size: 0x8, addend: 0x0, symName: __Z9prod_scal8Vector3fS_, symObjAddr: 0x294, symBinAddr: 0x100002610, symSize: 0x50 }
  - { offset: 0x10730, size: 0x8, addend: 0x0, symName: __Z3dir5Ray3f, symObjAddr: 0x35C, symBinAddr: 0x100002660, symSize: 0x74 }
  - { offset: 0x1076B, size: 0x8, addend: 0x0, symName: __ZNK8Vector3fplES_, symObjAddr: 0x3FC, symBinAddr: 0x1000026D4, symSize: 0x78 }
  - { offset: 0x107AB, size: 0x8, addend: 0x0, symName: __Z4egal8Vector3fS_, symObjAddr: 0x474, symBinAddr: 0x10000274C, symSize: 0x84 }
  - { offset: 0x108F3, size: 0x8, addend: 0x0, symName: __ZNK4Cube6is_hitE5Ray3f, symObjAddr: 0x4F8, symBinAddr: 0x1000027D0, symSize: 0xD28 }
  - { offset: 0x10AB8, size: 0x8, addend: 0x0, symName: __ZNK8Vector3f9normaliseEv, symObjAddr: 0x1220, symBinAddr: 0x1000034F8, symSize: 0xA8 }
  - { offset: 0x10B14, size: 0x8, addend: 0x0, symName: __Z9prod_vect8Vector3fS_, symObjAddr: 0x12C8, symBinAddr: 0x1000035A0, symSize: 0x98 }
  - { offset: 0x10B5C, size: 0x8, addend: 0x0, symName: __ZNSt3__16vectorIfNS_9allocatorIfEEEC1B8ne180100Ev, symObjAddr: 0x1360, symBinAddr: 0x100003638, symSize: 0x2C }
  - { offset: 0x10B84, size: 0x8, addend: 0x0, symName: __ZNSt3__16vectorINS0_I8Vector3fNS_9allocatorIS1_EEEENS2_IS4_EEEC1B8ne180100Ev, symObjAddr: 0x138C, symBinAddr: 0x100003664, symSize: 0x2C }
  - { offset: 0x10BAC, size: 0x8, addend: 0x0, symName: __ZNSt3__16vectorI8Vector3fNS_9allocatorIS1_EEEC1B8ne180100Ev, symObjAddr: 0x13B8, symBinAddr: 0x100003690, symSize: 0x2C }
  - { offset: 0x10BD5, size: 0x8, addend: 0x0, symName: __ZNSt3__16vectorIfNS_9allocatorIfEEE9push_backB8ne180100ERKf, symObjAddr: 0x13E4, symBinAddr: 0x1000036BC, symSize: 0x90 }
  - { offset: 0x10C1A, size: 0x8, addend: 0x0, symName: __ZNSt3__16vectorIfNS_9allocatorIfEEE9push_backB8ne180100EOf, symObjAddr: 0x1474, symBinAddr: 0x10000374C, symSize: 0x90 }
  - { offset: 0x10C5F, size: 0x8, addend: 0x0, symName: __ZNSt3__16vectorI8Vector3fNS_9allocatorIS1_EEE9push_backB8ne180100EOS1_, symObjAddr: 0x1504, symBinAddr: 0x1000037DC, symSize: 0x90 }
  - { offset: 0x10CA4, size: 0x8, addend: 0x0, symName: __ZNSt3__16vectorI8Vector3fNS_9allocatorIS1_EEE9push_backB8ne180100ERKS1_, symObjAddr: 0x1594, symBinAddr: 0x10000386C, symSize: 0x90 }
  - { offset: 0x10CE9, size: 0x8, addend: 0x0, symName: __ZNSt3__16vectorINS0_I8Vector3fNS_9allocatorIS1_EEEENS2_IS4_EEE9push_backB8ne180100ERKS4_, symObjAddr: 0x1624, symBinAddr: 0x1000038FC, symSize: 0x90 }
  - { offset: 0x10D2D, size: 0x8, addend: 0x0, symName: __ZNK8Vector3fmlEf, symObjAddr: 0x16B4, symBinAddr: 0x10000398C, symSize: 0x70 }
  - { offset: 0x10D6D, size: 0x8, addend: 0x0, symName: __ZNSt3__16vectorI8Vector3fNS_9allocatorIS1_EEED1B8ne180100Ev, symObjAddr: 0x1724, symBinAddr: 0x1000039FC, symSize: 0x2C }
  - { offset: 0x10D96, size: 0x8, addend: 0x0, symName: __ZNSt3__16vectorIfNS_9allocatorIfEEE5beginB8ne180100Ev, symObjAddr: 0x1760, symBinAddr: 0x100003A38, symSize: 0x30 }
  - { offset: 0x10DBD, size: 0x8, addend: 0x0, symName: __ZNSt3__16vectorIfNS_9allocatorIfEEE3endB8ne180100Ev, symObjAddr: 0x1790, symBinAddr: 0x100003A68, symSize: 0x30 }
  - { offset: 0x10DE4, size: 0x8, addend: 0x0, symName: __ZNSt3__16vectorINS0_I8Vector3fNS_9allocatorIS1_EEEENS2_IS4_EEE5beginB8ne180100Ev, symObjAddr: 0x17C0, symBinAddr: 0x100003A98, symSize: 0x30 }
  - { offset: 0x10E0B, size: 0x8, addend: 0x0, symName: __ZNKSt3__111__wrap_iterIPNS_6vectorI8Vector3fNS_9allocatorIS2_EEEEEdeB8ne180100Ev, symObjAddr: 0x1838, symBinAddr: 0x100003B10, symSize: 0x18 }
  - { offset: 0x10E30, size: 0x8, addend: 0x0, symName: __ZNSt3__16vectorI8Vector3fNS_9allocatorIS1_EEEixB8ne180100Em, symObjAddr: 0x1850, symBinAddr: 0x100003B28, symSize: 0x2C }
  - { offset: 0x10E66, size: 0x8, addend: 0x0, symName: __ZNKSt3__111__wrap_iterIPfEdeB8ne180100Ev, symObjAddr: 0x187C, symBinAddr: 0x100003B54, symSize: 0x18 }
  - { offset: 0x10E8B, size: 0x8, addend: 0x0, symName: __ZNSt3__16vectorIfNS_9allocatorIfEEE5eraseB8ne180100ENS_11__wrap_iterIPKfEE, symObjAddr: 0x1894, symBinAddr: 0x100003B6C, symSize: 0x94 }
  - { offset: 0x10EE3, size: 0x8, addend: 0x0, symName: __ZNSt3__111__wrap_iterIPKfEC1B8ne180100IPfLi0EEERKNS0_IT_EE, symObjAddr: 0x1928, symBinAddr: 0x100003C00, symSize: 0x34 }
  - { offset: 0x10F29, size: 0x8, addend: 0x0, symName: __ZNSt3__16vectorINS0_I8Vector3fNS_9allocatorIS1_EEEENS2_IS4_EEE5eraseB8ne180100ENS_11__wrap_iterIPKS4_EE, symObjAddr: 0x195C, symBinAddr: 0x100003C34, symSize: 0x9C }
  - { offset: 0x10F81, size: 0x8, addend: 0x0, symName: __ZNSt3__111__wrap_iterIPKNS_6vectorI8Vector3fNS_9allocatorIS2_EEEEEC1B8ne180100IPS5_Li0EEERKNS0_IT_EE, symObjAddr: 0x19F8, symBinAddr: 0x100003CD0, symSize: 0x34 }
  - { offset: 0x10FC6, size: 0x8, addend: 0x0, symName: __ZNK4Cube13est_dans_surfE8Vector3fS0_S0_S0_S0_, symObjAddr: 0x1A2C, symBinAddr: 0x100003D04, symSize: 0x4CC }
  - { offset: 0x1107D, size: 0x8, addend: 0x0, symName: __ZNSt3__111__wrap_iterIPfEppB8ne180100Ei, symObjAddr: 0x1EF8, symBinAddr: 0x1000041D0, symSize: 0x34 }
  - { offset: 0x110BA, size: 0x8, addend: 0x0, symName: __ZNSt3__111__wrap_iterIPNS_6vectorI8Vector3fNS_9allocatorIS2_EEEEEppB8ne180100Ei, symObjAddr: 0x1F2C, symBinAddr: 0x100004204, symSize: 0x34 }
  - { offset: 0x110F8, size: 0x8, addend: 0x0, symName: __ZNKSt3__16vectorI8Vector3fNS_9allocatorIS1_EEE4sizeB8ne180100Ev, symObjAddr: 0x1F60, symBinAddr: 0x100004238, symSize: 0x28 }
  - { offset: 0x1111C, size: 0x8, addend: 0x0, symName: __ZNSt3__16vectorINS0_I8Vector3fNS_9allocatorIS1_EEEENS2_IS4_EEED1B8ne180100Ev, symObjAddr: 0x1F88, symBinAddr: 0x100004260, symSize: 0x2C }
  - { offset: 0x11144, size: 0x8, addend: 0x0, symName: __ZNSt3__16vectorIfNS_9allocatorIfEEED1B8ne180100Ev, symObjAddr: 0x1FB4, symBinAddr: 0x10000428C, symSize: 0x2C }
  - { offset: 0x1116C, size: 0x8, addend: 0x0, symName: __Z9direction8Vector3fS_, symObjAddr: 0x1FE0, symBinAddr: 0x1000042B8, symSize: 0x74 }
  - { offset: 0x111B4, size: 0x8, addend: 0x0, symName: __ZNK8Vector3f5normeEv, symObjAddr: 0x2078, symBinAddr: 0x10000432C, symSize: 0x50 }
  - { offset: 0x111E6, size: 0x8, addend: 0x0, symName: __Z3absB8ne180100f, symObjAddr: 0x215C, symBinAddr: 0x100004394, symSize: 0x18 }
  - { offset: 0x11212, size: 0x8, addend: 0x0, symName: __ZNSt3__16vectorIfNS_9allocatorIfEEEC2B8ne180100Ev, symObjAddr: 0x2174, symBinAddr: 0x1000043AC, symSize: 0x44 }
  - { offset: 0x1124B, size: 0x8, addend: 0x0, symName: __ZNSt3__117__compressed_pairIPfNS_9allocatorIfEEEC1B8ne180100IDnNS_18__default_init_tagEEEOT_OT0_, symObjAddr: 0x21B8, symBinAddr: 0x1000043F0, symSize: 0x3C }
  - { offset: 0x112A1, size: 0x8, addend: 0x0, symName: __ZNSt3__117__compressed_pairIPfNS_9allocatorIfEEEC2B8ne180100IDnNS_18__default_init_tagEEEOT_OT0_, symObjAddr: 0x21F4, symBinAddr: 0x10000442C, symSize: 0x40 }
  - { offset: 0x112F7, size: 0x8, addend: 0x0, symName: __ZNSt3__122__compressed_pair_elemIPfLi0ELb0EEC2B8ne180100IDnvEEOT_, symObjAddr: 0x2234, symBinAddr: 0x10000446C, symSize: 0x1C }
  - { offset: 0x11337, size: 0x8, addend: 0x0, symName: __ZNSt3__122__compressed_pair_elemINS_9allocatorIfEELi1ELb1EEC2B8ne180100ENS_18__default_init_tagE, symObjAddr: 0x2250, symBinAddr: 0x100004488, symSize: 0x2C }
  - { offset: 0x1136A, size: 0x8, addend: 0x0, symName: __ZNSt3__19allocatorIfEC2B8ne180100Ev, symObjAddr: 0x227C, symBinAddr: 0x1000044B4, symSize: 0x2C }
  - { offset: 0x11392, size: 0x8, addend: 0x0, symName: __ZNSt3__116__non_trivial_ifILb1ENS_9allocatorIfEEEC2B8ne180100Ev, symObjAddr: 0x22A8, symBinAddr: 0x1000044E0, symSize: 0x14 }
  - { offset: 0x113BA, size: 0x8, addend: 0x0, symName: __ZNSt3__16vectorIfNS_9allocatorIfEEED2B8ne180100Ev, symObjAddr: 0x22BC, symBinAddr: 0x1000044F4, symSize: 0x3C }
  - { offset: 0x113E2, size: 0x8, addend: 0x0, symName: __ZNSt3__16vectorIfNS_9allocatorIfEEE16__destroy_vectorC1B8ne180100ERS3_, symObjAddr: 0x22F8, symBinAddr: 0x100004530, symSize: 0x34 }
  - { offset: 0x11419, size: 0x8, addend: 0x0, symName: __ZNSt3__16vectorIfNS_9allocatorIfEEE16__destroy_vectorclB8ne180100Ev, symObjAddr: 0x232C, symBinAddr: 0x100004564, symSize: 0x90 }
  - { offset: 0x1143D, size: 0x8, addend: 0x0, symName: __ZNSt3__16vectorIfNS_9allocatorIfEEE16__destroy_vectorC2B8ne180100ERS3_, symObjAddr: 0x23BC, symBinAddr: 0x1000045F4, symSize: 0x20 }
  - { offset: 0x11474, size: 0x8, addend: 0x0, symName: __ZNSt3__16vectorIfNS_9allocatorIfEEE7__clearB8ne180100Ev, symObjAddr: 0x23DC, symBinAddr: 0x100004614, symSize: 0x28 }
  - { offset: 0x11499, size: 0x8, addend: 0x0, symName: __ZNKSt3__16vectorIfNS_9allocatorIfEEE17__annotate_deleteB8ne180100Ev, symObjAddr: 0x2404, symBinAddr: 0x10000463C, symSize: 0x10 }
  - { offset: 0x114BE, size: 0x8, addend: 0x0, symName: __ZNSt3__116allocator_traitsINS_9allocatorIfEEE10deallocateB8ne180100ERS2_Pfm, symObjAddr: 0x2414, symBinAddr: 0x10000464C, symSize: 0x34 }
  - { offset: 0x114FF, size: 0x8, addend: 0x0, symName: __ZNSt3__16vectorIfNS_9allocatorIfEEE7__allocB8ne180100Ev, symObjAddr: 0x2448, symBinAddr: 0x100004680, symSize: 0x28 }
  - { offset: 0x11523, size: 0x8, addend: 0x0, symName: __ZNKSt3__16vectorIfNS_9allocatorIfEEE8capacityB8ne180100Ev, symObjAddr: 0x2470, symBinAddr: 0x1000046A8, symSize: 0x40 }
  - { offset: 0x11547, size: 0x8, addend: 0x0, symName: __ZNSt3__16vectorIfNS_9allocatorIfEEE22__base_destruct_at_endB8ne180100EPf, symObjAddr: 0x24B0, symBinAddr: 0x1000046E8, symSize: 0xA0 }
  - { offset: 0x1158A, size: 0x8, addend: 0x0, symName: __ZNSt3__116allocator_traitsINS_9allocatorIfEEE7destroyB8ne180100IfvEEvRS2_PT_, symObjAddr: 0x2550, symBinAddr: 0x100004788, symSize: 0x2C }
  - { offset: 0x115C7, size: 0x8, addend: 0x0, symName: __ZNSt3__19allocatorIfE7destroyB8ne180100EPf, symObjAddr: 0x2590, symBinAddr: 0x1000047C8, symSize: 0x14 }
  - { offset: 0x115F9, size: 0x8, addend: 0x0, symName: __ZNSt3__19allocatorIfE10deallocateB8ne180100EPfm, symObjAddr: 0x25A4, symBinAddr: 0x1000047DC, symSize: 0x70 }
  - { offset: 0x11639, size: 0x8, addend: 0x0, symName: __ZNSt3__117__compressed_pairIPfNS_9allocatorIfEEE6secondB8ne180100Ev, symObjAddr: 0x269C, symBinAddr: 0x1000048D4, symSize: 0x24 }
  - { offset: 0x1165E, size: 0x8, addend: 0x0, symName: __ZNSt3__122__compressed_pair_elemINS_9allocatorIfEELi1ELb1EE5__getB8ne180100Ev, symObjAddr: 0x26C0, symBinAddr: 0x1000048F8, symSize: 0x14 }
  - { offset: 0x11682, size: 0x8, addend: 0x0, symName: __ZNKSt3__16vectorIfNS_9allocatorIfEEE9__end_capB8ne180100Ev, symObjAddr: 0x26D4, symBinAddr: 0x10000490C, symSize: 0x28 }
  - { offset: 0x116A6, size: 0x8, addend: 0x0, symName: __ZNKSt3__117__compressed_pairIPfNS_9allocatorIfEEE5firstB8ne180100Ev, symObjAddr: 0x26FC, symBinAddr: 0x100004934, symSize: 0x24 }
  - { offset: 0x116CB, size: 0x8, addend: 0x0, symName: __ZNKSt3__122__compressed_pair_elemIPfLi0ELb0EE5__getB8ne180100Ev, symObjAddr: 0x2720, symBinAddr: 0x100004958, symSize: 0x14 }
  - { offset: 0x116EF, size: 0x8, addend: 0x0, symName: __ZNSt3__16vectorINS0_I8Vector3fNS_9allocatorIS1_EEEENS2_IS4_EEEC2B8ne180100Ev, symObjAddr: 0x2734, symBinAddr: 0x10000496C, symSize: 0x44 }
  - { offset: 0x11717, size: 0x8, addend: 0x0, symName: __ZNSt3__117__compressed_pairIPNS_6vectorI8Vector3fNS_9allocatorIS2_EEEENS3_IS5_EEEC1B8ne180100IDnNS_18__default_init_tagEEEOT_OT0_, symObjAddr: 0x2778, symBinAddr: 0x1000049B0, symSize: 0x3C }
  - { offset: 0x1176D, size: 0x8, addend: 0x0, symName: __ZNSt3__117__compressed_pairIPNS_6vectorI8Vector3fNS_9allocatorIS2_EEEENS3_IS5_EEEC2B8ne180100IDnNS_18__default_init_tagEEEOT_OT0_, symObjAddr: 0x27B4, symBinAddr: 0x1000049EC, symSize: 0x40 }
  - { offset: 0x117C3, size: 0x8, addend: 0x0, symName: __ZNSt3__122__compressed_pair_elemIPNS_6vectorI8Vector3fNS_9allocatorIS2_EEEELi0ELb0EEC2B8ne180100IDnvEEOT_, symObjAddr: 0x27F4, symBinAddr: 0x100004A2C, symSize: 0x1C }
  - { offset: 0x11803, size: 0x8, addend: 0x0, symName: __ZNSt3__122__compressed_pair_elemINS_9allocatorINS_6vectorI8Vector3fNS1_IS3_EEEEEELi1ELb1EEC2B8ne180100ENS_18__default_init_tagE, symObjAddr: 0x2810, symBinAddr: 0x100004A48, symSize: 0x2C }
  - { offset: 0x11836, size: 0x8, addend: 0x0, symName: __ZNSt3__19allocatorINS_6vectorI8Vector3fNS0_IS2_EEEEEC2B8ne180100Ev, symObjAddr: 0x283C, symBinAddr: 0x100004A74, symSize: 0x2C }
  - { offset: 0x1185E, size: 0x8, addend: 0x0, symName: __ZNSt3__116__non_trivial_ifILb1ENS_9allocatorINS_6vectorI8Vector3fNS1_IS3_EEEEEEEC2B8ne180100Ev, symObjAddr: 0x2868, symBinAddr: 0x100004AA0, symSize: 0x14 }
  - { offset: 0x11886, size: 0x8, addend: 0x0, symName: __ZNSt3__16vectorINS0_I8Vector3fNS_9allocatorIS1_EEEENS2_IS4_EEED2B8ne180100Ev, symObjAddr: 0x287C, symBinAddr: 0x100004AB4, symSize: 0x3C }
  - { offset: 0x118AE, size: 0x8, addend: 0x0, symName: __ZNSt3__16vectorINS0_I8Vector3fNS_9allocatorIS1_EEEENS2_IS4_EEE16__destroy_vectorC1B8ne180100ERS6_, symObjAddr: 0x28B8, symBinAddr: 0x100004AF0, symSize: 0x34 }
  - { offset: 0x118E5, size: 0x8, addend: 0x0, symName: __ZNSt3__16vectorINS0_I8Vector3fNS_9allocatorIS1_EEEENS2_IS4_EEE16__destroy_vectorclB8ne180100Ev, symObjAddr: 0x28EC, symBinAddr: 0x100004B24, symSize: 0x90 }
  - { offset: 0x11909, size: 0x8, addend: 0x0, symName: __ZNSt3__16vectorINS0_I8Vector3fNS_9allocatorIS1_EEEENS2_IS4_EEE16__destroy_vectorC2B8ne180100ERS6_, symObjAddr: 0x297C, symBinAddr: 0x100004BB4, symSize: 0x20 }
  - { offset: 0x11940, size: 0x8, addend: 0x0, symName: __ZNSt3__16vectorINS0_I8Vector3fNS_9allocatorIS1_EEEENS2_IS4_EEE7__clearB8ne180100Ev, symObjAddr: 0x299C, symBinAddr: 0x100004BD4, symSize: 0x28 }
  - { offset: 0x11965, size: 0x8, addend: 0x0, symName: __ZNKSt3__16vectorINS0_I8Vector3fNS_9allocatorIS1_EEEENS2_IS4_EEE17__annotate_deleteB8ne180100Ev, symObjAddr: 0x29C4, symBinAddr: 0x100004BFC, symSize: 0x10 }
  - { offset: 0x1198A, size: 0x8, addend: 0x0, symName: __ZNSt3__116allocator_traitsINS_9allocatorINS_6vectorI8Vector3fNS1_IS3_EEEEEEE10deallocateB8ne180100ERS6_PS5_m, symObjAddr: 0x29D4, symBinAddr: 0x100004C0C, symSize: 0x34 }
  - { offset: 0x119CB, size: 0x8, addend: 0x0, symName: __ZNSt3__16vectorINS0_I8Vector3fNS_9allocatorIS1_EEEENS2_IS4_EEE7__allocB8ne180100Ev, symObjAddr: 0x2A08, symBinAddr: 0x100004C40, symSize: 0x28 }
  - { offset: 0x119EF, size: 0x8, addend: 0x0, symName: __ZNKSt3__16vectorINS0_I8Vector3fNS_9allocatorIS1_EEEENS2_IS4_EEE8capacityB8ne180100Ev, symObjAddr: 0x2A30, symBinAddr: 0x100004C68, symSize: 0x40 }
  - { offset: 0x11A13, size: 0x8, addend: 0x0, symName: __ZNSt3__16vectorINS0_I8Vector3fNS_9allocatorIS1_EEEENS2_IS4_EEE22__base_destruct_at_endB8ne180100EPS4_, symObjAddr: 0x2A70, symBinAddr: 0x100004CA8, symSize: 0xA0 }
  - { offset: 0x11A56, size: 0x8, addend: 0x0, symName: __ZNSt3__116allocator_traitsINS_9allocatorINS_6vectorI8Vector3fNS1_IS3_EEEEEEE7destroyB8ne180100IS5_vEEvRS6_PT_, symObjAddr: 0x2B10, symBinAddr: 0x100004D48, symSize: 0x2C }
  - { offset: 0x11A92, size: 0x8, addend: 0x0, symName: __ZNSt3__19allocatorINS_6vectorI8Vector3fNS0_IS2_EEEEE7destroyB8ne180100EPS4_, symObjAddr: 0x2B50, symBinAddr: 0x100004D88, symSize: 0x28 }
  - { offset: 0x11AC4, size: 0x8, addend: 0x0, symName: __ZNSt3__19allocatorINS_6vectorI8Vector3fNS0_IS2_EEEEE10deallocateB8ne180100EPS4_m, symObjAddr: 0x2B78, symBinAddr: 0x100004DB0, symSize: 0x74 }
  - { offset: 0x11B04, size: 0x8, addend: 0x0, symName: __ZNSt3__117__compressed_pairIPNS_6vectorI8Vector3fNS_9allocatorIS2_EEEENS3_IS5_EEE6secondB8ne180100Ev, symObjAddr: 0x2BEC, symBinAddr: 0x100004E24, symSize: 0x24 }
  - { offset: 0x11B29, size: 0x8, addend: 0x0, symName: __ZNSt3__122__compressed_pair_elemINS_9allocatorINS_6vectorI8Vector3fNS1_IS3_EEEEEELi1ELb1EE5__getB8ne180100Ev, symObjAddr: 0x2C10, symBinAddr: 0x100004E48, symSize: 0x14 }
  - { offset: 0x11B4D, size: 0x8, addend: 0x0, symName: __ZNKSt3__16vectorINS0_I8Vector3fNS_9allocatorIS1_EEEENS2_IS4_EEE9__end_capB8ne180100Ev, symObjAddr: 0x2C24, symBinAddr: 0x100004E5C, symSize: 0x28 }
  - { offset: 0x11B71, size: 0x8, addend: 0x0, symName: __ZNKSt3__117__compressed_pairIPNS_6vectorI8Vector3fNS_9allocatorIS2_EEEENS3_IS5_EEE5firstB8ne180100Ev, symObjAddr: 0x2C4C, symBinAddr: 0x100004E84, symSize: 0x24 }
  - { offset: 0x11B96, size: 0x8, addend: 0x0, symName: __ZNKSt3__122__compressed_pair_elemIPNS_6vectorI8Vector3fNS_9allocatorIS2_EEEELi0ELb0EE5__getB8ne180100Ev, symObjAddr: 0x2C70, symBinAddr: 0x100004EA8, symSize: 0x14 }
  - { offset: 0x11BBA, size: 0x8, addend: 0x0, symName: __ZNSt3__16vectorI8Vector3fNS_9allocatorIS1_EEEC2B8ne180100Ev, symObjAddr: 0x2C84, symBinAddr: 0x100004EBC, symSize: 0x44 }
  - { offset: 0x11BE2, size: 0x8, addend: 0x0, symName: __ZNSt3__117__compressed_pairIP8Vector3fNS_9allocatorIS1_EEEC1B8ne180100IDnNS_18__default_init_tagEEEOT_OT0_, symObjAddr: 0x2CC8, symBinAddr: 0x100004F00, symSize: 0x3C }
  - { offset: 0x11C38, size: 0x8, addend: 0x0, symName: __ZNSt3__117__compressed_pairIP8Vector3fNS_9allocatorIS1_EEEC2B8ne180100IDnNS_18__default_init_tagEEEOT_OT0_, symObjAddr: 0x2D04, symBinAddr: 0x100004F3C, symSize: 0x40 }
  - { offset: 0x11C8E, size: 0x8, addend: 0x0, symName: __ZNSt3__122__compressed_pair_elemIP8Vector3fLi0ELb0EEC2B8ne180100IDnvEEOT_, symObjAddr: 0x2D44, symBinAddr: 0x100004F7C, symSize: 0x1C }
  - { offset: 0x11CCE, size: 0x8, addend: 0x0, symName: __ZNSt3__122__compressed_pair_elemINS_9allocatorI8Vector3fEELi1ELb1EEC2B8ne180100ENS_18__default_init_tagE, symObjAddr: 0x2D60, symBinAddr: 0x100004F98, symSize: 0x2C }
  - { offset: 0x11D01, size: 0x8, addend: 0x0, symName: __ZNSt3__19allocatorI8Vector3fEC2B8ne180100Ev, symObjAddr: 0x2D8C, symBinAddr: 0x100004FC4, symSize: 0x2C }
  - { offset: 0x11D29, size: 0x8, addend: 0x0, symName: __ZNSt3__116__non_trivial_ifILb1ENS_9allocatorI8Vector3fEEEC2B8ne180100Ev, symObjAddr: 0x2DB8, symBinAddr: 0x100004FF0, symSize: 0x14 }
  - { offset: 0x11D51, size: 0x8, addend: 0x0, symName: __ZNSt3__16vectorI8Vector3fNS_9allocatorIS1_EEED2B8ne180100Ev, symObjAddr: 0x2DCC, symBinAddr: 0x100005004, symSize: 0x3C }
  - { offset: 0x11D79, size: 0x8, addend: 0x0, symName: __ZNSt3__16vectorI8Vector3fNS_9allocatorIS1_EEE16__destroy_vectorC1B8ne180100ERS4_, symObjAddr: 0x2E08, symBinAddr: 0x100005040, symSize: 0x34 }
  - { offset: 0x11DB0, size: 0x8, addend: 0x0, symName: __ZNSt3__16vectorI8Vector3fNS_9allocatorIS1_EEE16__destroy_vectorclB8ne180100Ev, symObjAddr: 0x2E3C, symBinAddr: 0x100005074, symSize: 0x90 }
  - { offset: 0x11DD4, size: 0x8, addend: 0x0, symName: __ZNSt3__16vectorI8Vector3fNS_9allocatorIS1_EEE16__destroy_vectorC2B8ne180100ERS4_, symObjAddr: 0x2ECC, symBinAddr: 0x100005104, symSize: 0x20 }
  - { offset: 0x11E0B, size: 0x8, addend: 0x0, symName: __ZNSt3__16vectorI8Vector3fNS_9allocatorIS1_EEE7__clearB8ne180100Ev, symObjAddr: 0x2EEC, symBinAddr: 0x100005124, symSize: 0x28 }
  - { offset: 0x11E30, size: 0x8, addend: 0x0, symName: __ZNKSt3__16vectorI8Vector3fNS_9allocatorIS1_EEE17__annotate_deleteB8ne180100Ev, symObjAddr: 0x2F14, symBinAddr: 0x10000514C, symSize: 0x10 }
  - { offset: 0x11E55, size: 0x8, addend: 0x0, symName: __ZNSt3__116allocator_traitsINS_9allocatorI8Vector3fEEE10deallocateB8ne180100ERS3_PS2_m, symObjAddr: 0x2F24, symBinAddr: 0x10000515C, symSize: 0x34 }
  - { offset: 0x11E96, size: 0x8, addend: 0x0, symName: __ZNSt3__16vectorI8Vector3fNS_9allocatorIS1_EEE7__allocB8ne180100Ev, symObjAddr: 0x2F58, symBinAddr: 0x100005190, symSize: 0x28 }
  - { offset: 0x11EBA, size: 0x8, addend: 0x0, symName: __ZNKSt3__16vectorI8Vector3fNS_9allocatorIS1_EEE8capacityB8ne180100Ev, symObjAddr: 0x2F80, symBinAddr: 0x1000051B8, symSize: 0x40 }
  - { offset: 0x11EDE, size: 0x8, addend: 0x0, symName: __ZNSt3__16vectorI8Vector3fNS_9allocatorIS1_EEE22__base_destruct_at_endB8ne180100EPS1_, symObjAddr: 0x2FC0, symBinAddr: 0x1000051F8, symSize: 0xA0 }
  - { offset: 0x11F21, size: 0x8, addend: 0x0, symName: __ZNSt3__116allocator_traitsINS_9allocatorI8Vector3fEEE7destroyB8ne180100IS2_vEEvRS3_PT_, symObjAddr: 0x3060, symBinAddr: 0x100005298, symSize: 0x2C }
  - { offset: 0x11F5E, size: 0x8, addend: 0x0, symName: __ZNSt3__19allocatorI8Vector3fE7destroyB8ne180100EPS1_, symObjAddr: 0x30A0, symBinAddr: 0x1000052D8, symSize: 0x14 }
  - { offset: 0x11F90, size: 0x8, addend: 0x0, symName: __ZNSt3__19allocatorI8Vector3fE10deallocateB8ne180100EPS1_m, symObjAddr: 0x30B4, symBinAddr: 0x1000052EC, symSize: 0x74 }
  - { offset: 0x11FD0, size: 0x8, addend: 0x0, symName: __ZNSt3__117__compressed_pairIP8Vector3fNS_9allocatorIS1_EEE6secondB8ne180100Ev, symObjAddr: 0x3128, symBinAddr: 0x100005360, symSize: 0x24 }
  - { offset: 0x11FF5, size: 0x8, addend: 0x0, symName: __ZNSt3__122__compressed_pair_elemINS_9allocatorI8Vector3fEELi1ELb1EE5__getB8ne180100Ev, symObjAddr: 0x314C, symBinAddr: 0x100005384, symSize: 0x14 }
  - { offset: 0x12019, size: 0x8, addend: 0x0, symName: __ZNKSt3__16vectorI8Vector3fNS_9allocatorIS1_EEE9__end_capB8ne180100Ev, symObjAddr: 0x3160, symBinAddr: 0x100005398, symSize: 0x28 }
  - { offset: 0x1203D, size: 0x8, addend: 0x0, symName: __ZNKSt3__117__compressed_pairIP8Vector3fNS_9allocatorIS1_EEE5firstB8ne180100Ev, symObjAddr: 0x3188, symBinAddr: 0x1000053C0, symSize: 0x24 }
  - { offset: 0x12062, size: 0x8, addend: 0x0, symName: __ZNKSt3__122__compressed_pair_elemIP8Vector3fLi0ELb0EE5__getB8ne180100Ev, symObjAddr: 0x31AC, symBinAddr: 0x1000053E4, symSize: 0x14 }
  - { offset: 0x12086, size: 0x8, addend: 0x0, symName: __ZNSt3__16vectorIfNS_9allocatorIfEEE9__end_capB8ne180100Ev, symObjAddr: 0x31C0, symBinAddr: 0x1000053F8, symSize: 0x28 }
  - { offset: 0x120AA, size: 0x8, addend: 0x0, symName: __ZNSt3__16vectorIfNS_9allocatorIfEEE22__construct_one_at_endB8ne180100IJRKfEEEvDpOT_, symObjAddr: 0x31E8, symBinAddr: 0x100005420, symSize: 0x98 }
  - { offset: 0x120F8, size: 0x8, addend: 0x0, symName: __ZNSt3__16vectorIfNS_9allocatorIfEEE21__push_back_slow_pathIRKfEEPfOT_, symObjAddr: 0x3280, symBinAddr: 0x1000054B8, symSize: 0xF0 }
  - { offset: 0x12154, size: 0x8, addend: 0x0, symName: __ZNSt3__117__compressed_pairIPfNS_9allocatorIfEEE5firstB8ne180100Ev, symObjAddr: 0x3370, symBinAddr: 0x1000055A8, symSize: 0x24 }
  - { offset: 0x12179, size: 0x8, addend: 0x0, symName: __ZNSt3__122__compressed_pair_elemIPfLi0ELb0EE5__getB8ne180100Ev, symObjAddr: 0x3394, symBinAddr: 0x1000055CC, symSize: 0x14 }
  - { offset: 0x121B6, size: 0x8, addend: 0x0, symName: __ZNSt3__16vectorIfNS_9allocatorIfEEE21_ConstructTransactionC1B8ne180100ERS3_m, symObjAddr: 0x33A8, symBinAddr: 0x1000055E0, symSize: 0x3C }
  - { offset: 0x121FD, size: 0x8, addend: 0x0, symName: __ZNSt3__116allocator_traitsINS_9allocatorIfEEE9constructB8ne180100IfJRKfEvEEvRS2_PT_DpOT0_, symObjAddr: 0x33E4, symBinAddr: 0x10000561C, symSize: 0x34 }
  - { offset: 0x12253, size: 0x8, addend: 0x0, symName: __ZNSt3__16vectorIfNS_9allocatorIfEEE21_ConstructTransactionD1B8ne180100Ev, symObjAddr: 0x3418, symBinAddr: 0x100005650, symSize: 0x2C }
  - { offset: 0x1227B, size: 0x8, addend: 0x0, symName: __ZNSt3__16vectorIfNS_9allocatorIfEEE21_ConstructTransactionC2B8ne180100ERS3_m, symObjAddr: 0x3444, symBinAddr: 0x10000567C, symSize: 0x44 }
  - { offset: 0x122C2, size: 0x8, addend: 0x0, symName: __ZNSt3__19allocatorIfE9constructB8ne180100IfJRKfEEEvPT_DpOT0_, symObjAddr: 0x3488, symBinAddr: 0x1000056C0, symSize: 0x28 }
  - { offset: 0x12316, size: 0x8, addend: 0x0, symName: __ZNSt3__16vectorIfNS_9allocatorIfEEE21_ConstructTransactionD2B8ne180100Ev, symObjAddr: 0x34B0, symBinAddr: 0x1000056E8, symSize: 0x20 }
  - { offset: 0x1233F, size: 0x8, addend: 0x0, symName: __ZNKSt3__16vectorIfNS_9allocatorIfEEE11__recommendB8ne180100Em, symObjAddr: 0x34D0, symBinAddr: 0x100005708, symSize: 0xB4 }
  - { offset: 0x12393, size: 0x8, addend: 0x0, symName: __ZNKSt3__16vectorIfNS_9allocatorIfEEE4sizeB8ne180100Ev, symObjAddr: 0x3584, symBinAddr: 0x1000057BC, symSize: 0x28 }
  - { offset: 0x123B8, size: 0x8, addend: 0x0, symName: __ZNSt3__114__split_bufferIfRNS_9allocatorIfEEEC1EmmS3_, symObjAddr: 0x35AC, symBinAddr: 0x1000057E4, symSize: 0x44 }
  - { offset: 0x1240D, size: 0x8, addend: 0x0, symName: __ZNSt3__114__split_bufferIfRNS_9allocatorIfEEED1Ev, symObjAddr: 0x3700, symBinAddr: 0x100005938, symSize: 0x2C }
  - { offset: 0x12438, size: 0x8, addend: 0x0, symName: __ZNKSt3__16vectorIfNS_9allocatorIfEEE8max_sizeEv, symObjAddr: 0x372C, symBinAddr: 0x100005964, symSize: 0x74 }
  - { offset: 0x1245E, size: 0x8, addend: 0x0, symName: __ZNKSt3__16vectorIfNS_9allocatorIfEEE20__throw_length_errorB8ne180100Ev, symObjAddr: 0x37A0, symBinAddr: 0x1000059D8, symSize: 0x1C }
  - { offset: 0x1248D, size: 0x8, addend: 0x0, symName: __ZNSt3__116allocator_traitsINS_9allocatorIfEEE8max_sizeB8ne180100IS2_vEEmRKS2_, symObjAddr: 0x3814, symBinAddr: 0x100005A4C, symSize: 0x24 }
  - { offset: 0x124BA, size: 0x8, addend: 0x0, symName: __ZNKSt3__16vectorIfNS_9allocatorIfEEE7__allocB8ne180100Ev, symObjAddr: 0x3838, symBinAddr: 0x100005A70, symSize: 0x28 }
  - { offset: 0x124DF, size: 0x8, addend: 0x0, symName: __ZNSt3__114numeric_limitsIlE3maxB8ne180100Ev, symObjAddr: 0x3860, symBinAddr: 0x100005A98, symSize: 0x14 }
  - { offset: 0x12507, size: 0x8, addend: 0x0, symName: __ZNKSt3__16__lessIvvEclB8ne180100ImmEEbRKT_RKT0_, symObjAddr: 0x38C8, symBinAddr: 0x100005B00, symSize: 0x34 }
  - { offset: 0x1255A, size: 0x8, addend: 0x0, symName: __ZNKSt3__19allocatorIfE8max_sizeB8ne180100Ev, symObjAddr: 0x38FC, symBinAddr: 0x100005B34, symSize: 0x14 }
  - { offset: 0x1257E, size: 0x8, addend: 0x0, symName: __ZNKSt3__117__compressed_pairIPfNS_9allocatorIfEEE6secondB8ne180100Ev, symObjAddr: 0x3910, symBinAddr: 0x100005B48, symSize: 0x24 }
  - { offset: 0x125A3, size: 0x8, addend: 0x0, symName: __ZNKSt3__122__compressed_pair_elemINS_9allocatorIfEELi1ELb1EE5__getB8ne180100Ev, symObjAddr: 0x3934, symBinAddr: 0x100005B6C, symSize: 0x14 }
  - { offset: 0x125C8, size: 0x8, addend: 0x0, symName: __ZNSt3__123__libcpp_numeric_limitsIlLb1EE3maxB8ne180100Ev, symObjAddr: 0x3948, symBinAddr: 0x100005B80, symSize: 0x8 }
  - { offset: 0x125DB, size: 0x8, addend: 0x0, symName: __ZNSt12length_errorC1B8ne180100EPKc, symObjAddr: 0x39B4, symBinAddr: 0x100005BEC, symSize: 0x34 }
  - { offset: 0x12611, size: 0x8, addend: 0x0, symName: __ZNSt12length_errorC2B8ne180100EPKc, symObjAddr: 0x39E8, symBinAddr: 0x100005C20, symSize: 0x44 }
  - { offset: 0x12648, size: 0x8, addend: 0x0, symName: __ZNSt3__114__split_bufferIfRNS_9allocatorIfEEEC2EmmS3_, symObjAddr: 0x3A80, symBinAddr: 0x100005CB8, symSize: 0xD4 }
  - { offset: 0x126B9, size: 0x8, addend: 0x0, symName: __ZNSt3__117__compressed_pairIPfRNS_9allocatorIfEEEC1B8ne180100IDnS4_EEOT_OT0_, symObjAddr: 0x3B54, symBinAddr: 0x100005D8C, symSize: 0x3C }
  - { offset: 0x1270F, size: 0x8, addend: 0x0, symName: __ZNSt3__114__split_bufferIfRNS_9allocatorIfEEE7__allocB8ne180100Ev, symObjAddr: 0x3BD0, symBinAddr: 0x100005E08, symSize: 0x28 }
  - { offset: 0x12733, size: 0x8, addend: 0x0, symName: __ZNSt3__114__split_bufferIfRNS_9allocatorIfEEE9__end_capB8ne180100Ev, symObjAddr: 0x3BF8, symBinAddr: 0x100005E30, symSize: 0x28 }
  - { offset: 0x12757, size: 0x8, addend: 0x0, symName: __ZNSt3__117__compressed_pairIPfRNS_9allocatorIfEEEC2B8ne180100IDnS4_EEOT_OT0_, symObjAddr: 0x3C20, symBinAddr: 0x100005E58, symSize: 0x48 }
  - { offset: 0x127AD, size: 0x8, addend: 0x0, symName: __ZNSt3__122__compressed_pair_elemIRNS_9allocatorIfEELi1ELb0EEC2B8ne180100IS3_vEEOT_, symObjAddr: 0x3C68, symBinAddr: 0x100005EA0, symSize: 0x20 }
  - { offset: 0x127ED, size: 0x8, addend: 0x0, symName: __ZNSt3__19allocatorIfE8allocateB8ne180100Em, symObjAddr: 0x3C88, symBinAddr: 0x100005EC0, symSize: 0x84 }
  - { offset: 0x1281F, size: 0x8, addend: 0x0, symName: __ZNSt3__117__compressed_pairIPfRNS_9allocatorIfEEE6secondB8ne180100Ev, symObjAddr: 0x3D8C, symBinAddr: 0x100005FC4, symSize: 0x28 }
  - { offset: 0x12844, size: 0x8, addend: 0x0, symName: __ZNSt3__122__compressed_pair_elemIRNS_9allocatorIfEELi1ELb0EE5__getB8ne180100Ev, symObjAddr: 0x3DB4, symBinAddr: 0x100005FEC, symSize: 0x18 }
  - { offset: 0x12868, size: 0x8, addend: 0x0, symName: __ZNSt3__117__compressed_pairIPfRNS_9allocatorIfEEE5firstB8ne180100Ev, symObjAddr: 0x3DCC, symBinAddr: 0x100006004, symSize: 0x24 }
  - { offset: 0x1288C, size: 0x8, addend: 0x0, symName: __ZNSt3__116reverse_iteratorIPfEC1B8ne180100ES1_, symObjAddr: 0x3ED8, symBinAddr: 0x100006110, symSize: 0x34 }
  - { offset: 0x128C3, size: 0x8, addend: 0x0, symName: __ZNKSt3__116reverse_iteratorIPfE4baseB8ne180100Ev, symObjAddr: 0x3F0C, symBinAddr: 0x100006144, symSize: 0x18 }
  - { offset: 0x128E8, size: 0x8, addend: 0x0, symName: __ZNKSt3__16vectorIfNS_9allocatorIfEEE14__annotate_newB8ne180100Em, symObjAddr: 0x3F60, symBinAddr: 0x100006198, symSize: 0x14 }
  - { offset: 0x1291C, size: 0x8, addend: 0x0, symName: __ZNKSt3__116reverse_iteratorIPfEdeB8ne180100Ev, symObjAddr: 0x4004, symBinAddr: 0x10000623C, symSize: 0x28 }
  - { offset: 0x1294F, size: 0x8, addend: 0x0, symName: __ZNSt3__116reverse_iteratorIPfEppB8ne180100Ev, symObjAddr: 0x402C, symBinAddr: 0x100006264, symSize: 0x20 }
  - { offset: 0x12979, size: 0x8, addend: 0x0, symName: __ZNSt3__119__to_address_helperINS_16reverse_iteratorIPfEEvE6__callB8ne180100ERKS3_, symObjAddr: 0x40C4, symBinAddr: 0x1000062FC, symSize: 0x4C }
  - { offset: 0x1299B, size: 0x8, addend: 0x0, symName: __ZNKSt3__116reverse_iteratorIPfEptB8ne180100Ev, symObjAddr: 0x4110, symBinAddr: 0x100006348, symSize: 0x24 }
  - { offset: 0x129E3, size: 0x8, addend: 0x0, symName: __ZNKSt3__111__move_loopINS_17_ClassicAlgPolicyEEclB8ne180100INS_16reverse_iteratorIPfEES6_S6_EENS_4pairIT_T1_EES8_T0_S9_, symObjAddr: 0x43AC, symBinAddr: 0x1000065E4, symSize: 0xA0 }
  - { offset: 0x12A53, size: 0x8, addend: 0x0, symName: __ZNSt3__18_IterOpsINS_17_ClassicAlgPolicyEE11__iter_moveB8ne180100IRNS_16reverse_iteratorIPfEELi0EEEDTclsr3stdE4movedeclsr3stdE7declvalIRT_EEEEOS8_, symObjAddr: 0x45AC, symBinAddr: 0x1000067E4, symSize: 0x28 }
  - { offset: 0x12A85, size: 0x8, addend: 0x0, symName: __ZNSt3__18_IterOpsINS_17_ClassicAlgPolicyEE25__validate_iter_referenceB8ne180100IRNS_16reverse_iteratorIPfEEEEvv, symObjAddr: 0x45D4, symBinAddr: 0x10000680C, symSize: 0x4 }
  - { offset: 0x12AA3, size: 0x8, addend: 0x0, symName: __ZNSt3__118__unwrap_iter_implINS_16reverse_iteratorIPfEELb0EE8__unwrapB8ne180100ES3_, symObjAddr: 0x45D8, symBinAddr: 0x100006810, symSize: 0x24 }
  - { offset: 0x12AC5, size: 0x8, addend: 0x0, symName: __ZNSt3__14pairINS_16reverse_iteratorIPfEES3_EC1B8ne180100ERKS3_S6_, symObjAddr: 0x45FC, symBinAddr: 0x100006834, symSize: 0x3C }
  - { offset: 0x12B09, size: 0x8, addend: 0x0, symName: __ZNSt3__14pairINS_16reverse_iteratorIPfEES3_EC2B8ne180100ERKS3_S6_, symObjAddr: 0x4638, symBinAddr: 0x100006870, symSize: 0x34 }
  - { offset: 0x12B4E, size: 0x8, addend: 0x0, symName: __ZNSt3__118__unwrap_iter_implINS_16reverse_iteratorIPfEELb0EE8__rewrapB8ne180100ES3_S3_, symObjAddr: 0x466C, symBinAddr: 0x1000068A4, symSize: 0x2C }
  - { offset: 0x12B7B, size: 0x8, addend: 0x0, symName: __ZNSt3__116reverse_iteratorIPfEC2B8ne180100ES1_, symObjAddr: 0x4698, symBinAddr: 0x1000068D0, symSize: 0x28 }
  - { offset: 0x12BB2, size: 0x8, addend: 0x0, symName: __ZNSt3__114__split_bufferIfRNS_9allocatorIfEEED2Ev, symObjAddr: 0x46C0, symBinAddr: 0x1000068F8, symSize: 0x80 }
  - { offset: 0x12BDC, size: 0x8, addend: 0x0, symName: __ZNSt3__114__split_bufferIfRNS_9allocatorIfEEE5clearB8ne180100Ev, symObjAddr: 0x4740, symBinAddr: 0x100006978, symSize: 0x28 }
  - { offset: 0x12C00, size: 0x8, addend: 0x0, symName: __ZNKSt3__114__split_bufferIfRNS_9allocatorIfEEE8capacityB8ne180100Ev, symObjAddr: 0x4768, symBinAddr: 0x1000069A0, symSize: 0x40 }
  - { offset: 0x12C24, size: 0x8, addend: 0x0, symName: __ZNSt3__114__split_bufferIfRNS_9allocatorIfEEE17__destruct_at_endB8ne180100EPf, symObjAddr: 0x47A8, symBinAddr: 0x1000069E0, symSize: 0x2C }
  - { offset: 0x12C57, size: 0x8, addend: 0x0, symName: __ZNSt3__114__split_bufferIfRNS_9allocatorIfEEE17__destruct_at_endB8ne180100EPfNS_17integral_constantIbLb0EEE, symObjAddr: 0x47D4, symBinAddr: 0x100006A0C, symSize: 0x94 }
  - { offset: 0x12C96, size: 0x8, addend: 0x0, symName: __ZNKSt3__114__split_bufferIfRNS_9allocatorIfEEE9__end_capB8ne180100Ev, symObjAddr: 0x4868, symBinAddr: 0x100006AA0, symSize: 0x28 }
  - { offset: 0x12CBA, size: 0x8, addend: 0x0, symName: __ZNKSt3__117__compressed_pairIPfRNS_9allocatorIfEEE5firstB8ne180100Ev, symObjAddr: 0x4890, symBinAddr: 0x100006AC8, symSize: 0x24 }
  - { offset: 0x12CE4, size: 0x8, addend: 0x0, symName: __ZNSt3__16vectorIfNS_9allocatorIfEEE22__construct_one_at_endB8ne180100IJfEEEvDpOT_, symObjAddr: 0x48B4, symBinAddr: 0x100006AEC, symSize: 0x98 }
  - { offset: 0x12D32, size: 0x8, addend: 0x0, symName: __ZNSt3__16vectorIfNS_9allocatorIfEEE21__push_back_slow_pathIfEEPfOT_, symObjAddr: 0x494C, symBinAddr: 0x100006B84, symSize: 0xF0 }
  - { offset: 0x12D8F, size: 0x8, addend: 0x0, symName: __ZNSt3__116allocator_traitsINS_9allocatorIfEEE9constructB8ne180100IfJfEvEEvRS2_PT_DpOT0_, symObjAddr: 0x4A3C, symBinAddr: 0x100006C74, symSize: 0x34 }
  - { offset: 0x12DE6, size: 0x8, addend: 0x0, symName: __ZNSt3__19allocatorIfE9constructB8ne180100IfJfEEEvPT_DpOT0_, symObjAddr: 0x4A70, symBinAddr: 0x100006CA8, symSize: 0x28 }
  - { offset: 0x12E3A, size: 0x8, addend: 0x0, symName: __ZNSt3__16vectorI8Vector3fNS_9allocatorIS1_EEE9__end_capB8ne180100Ev, symObjAddr: 0x4A98, symBinAddr: 0x100006CD0, symSize: 0x28 }
  - { offset: 0x12E64, size: 0x8, addend: 0x0, symName: __ZNSt3__16vectorI8Vector3fNS_9allocatorIS1_EEE22__construct_one_at_endB8ne180100IJS1_EEEvDpOT_, symObjAddr: 0x4AC0, symBinAddr: 0x100006CF8, symSize: 0x98 }
  - { offset: 0x12EB2, size: 0x8, addend: 0x0, symName: __ZNSt3__16vectorI8Vector3fNS_9allocatorIS1_EEE21__push_back_slow_pathIS1_EEPS1_OT_, symObjAddr: 0x4B58, symBinAddr: 0x100006D90, symSize: 0xF0 }
  - { offset: 0x12F0E, size: 0x8, addend: 0x0, symName: __ZNSt3__117__compressed_pairIP8Vector3fNS_9allocatorIS1_EEE5firstB8ne180100Ev, symObjAddr: 0x4C48, symBinAddr: 0x100006E80, symSize: 0x24 }
  - { offset: 0x12F33, size: 0x8, addend: 0x0, symName: __ZNSt3__122__compressed_pair_elemIP8Vector3fLi0ELb0EE5__getB8ne180100Ev, symObjAddr: 0x4C6C, symBinAddr: 0x100006EA4, symSize: 0x14 }
  - { offset: 0x12F70, size: 0x8, addend: 0x0, symName: __ZNSt3__16vectorI8Vector3fNS_9allocatorIS1_EEE21_ConstructTransactionC1B8ne180100ERS4_m, symObjAddr: 0x4C80, symBinAddr: 0x100006EB8, symSize: 0x3C }
  - { offset: 0x12FB7, size: 0x8, addend: 0x0, symName: __ZNSt3__116allocator_traitsINS_9allocatorI8Vector3fEEE9constructB8ne180100IS2_JS2_EvEEvRS3_PT_DpOT0_, symObjAddr: 0x4CBC, symBinAddr: 0x100006EF4, symSize: 0x34 }
  - { offset: 0x1300D, size: 0x8, addend: 0x0, symName: __ZNSt3__16vectorI8Vector3fNS_9allocatorIS1_EEE21_ConstructTransactionD1B8ne180100Ev, symObjAddr: 0x4CF0, symBinAddr: 0x100006F28, symSize: 0x2C }
  - { offset: 0x13035, size: 0x8, addend: 0x0, symName: __ZNSt3__16vectorI8Vector3fNS_9allocatorIS1_EEE21_ConstructTransactionC2B8ne180100ERS4_m, symObjAddr: 0x4D1C, symBinAddr: 0x100006F54, symSize: 0x4C }
  - { offset: 0x1307C, size: 0x8, addend: 0x0, symName: __ZNSt3__19allocatorI8Vector3fE9constructB8ne180100IS1_JS1_EEEvPT_DpOT0_, symObjAddr: 0x4D68, symBinAddr: 0x100006FA0, symSize: 0x30 }
  - { offset: 0x130D0, size: 0x8, addend: 0x0, symName: __ZNSt3__16vectorI8Vector3fNS_9allocatorIS1_EEE21_ConstructTransactionD2B8ne180100Ev, symObjAddr: 0x4D98, symBinAddr: 0x100006FD0, symSize: 0x20 }
  - { offset: 0x130F9, size: 0x8, addend: 0x0, symName: __ZNKSt3__16vectorI8Vector3fNS_9allocatorIS1_EEE11__recommendB8ne180100Em, symObjAddr: 0x4DB8, symBinAddr: 0x100006FF0, symSize: 0xB4 }
  - { offset: 0x1314D, size: 0x8, addend: 0x0, symName: __ZNSt3__114__split_bufferI8Vector3fRNS_9allocatorIS1_EEEC1EmmS4_, symObjAddr: 0x4E6C, symBinAddr: 0x1000070A4, symSize: 0x44 }
  - { offset: 0x131A2, size: 0x8, addend: 0x0, symName: __ZNSt3__114__split_bufferI8Vector3fRNS_9allocatorIS1_EEED1Ev, symObjAddr: 0x4FC0, symBinAddr: 0x1000071F8, symSize: 0x2C }
  - { offset: 0x131CD, size: 0x8, addend: 0x0, symName: __ZNKSt3__16vectorI8Vector3fNS_9allocatorIS1_EEE8max_sizeEv, symObjAddr: 0x4FEC, symBinAddr: 0x100007224, symSize: 0x74 }
  - { offset: 0x131F3, size: 0x8, addend: 0x0, symName: __ZNKSt3__16vectorI8Vector3fNS_9allocatorIS1_EEE20__throw_length_errorB8ne180100Ev, symObjAddr: 0x5060, symBinAddr: 0x100007298, symSize: 0x1C }
  - { offset: 0x13222, size: 0x8, addend: 0x0, symName: __ZNSt3__116allocator_traitsINS_9allocatorI8Vector3fEEE8max_sizeB8ne180100IS3_vEEmRKS3_, symObjAddr: 0x507C, symBinAddr: 0x1000072B4, symSize: 0x24 }
  - { offset: 0x1324F, size: 0x8, addend: 0x0, symName: __ZNKSt3__16vectorI8Vector3fNS_9allocatorIS1_EEE7__allocB8ne180100Ev, symObjAddr: 0x50A0, symBinAddr: 0x1000072D8, symSize: 0x28 }
  - { offset: 0x13274, size: 0x8, addend: 0x0, symName: __ZNKSt3__19allocatorI8Vector3fE8max_sizeB8ne180100Ev, symObjAddr: 0x50C8, symBinAddr: 0x100007300, symSize: 0x18 }
  - { offset: 0x13298, size: 0x8, addend: 0x0, symName: __ZNKSt3__117__compressed_pairIP8Vector3fNS_9allocatorIS1_EEE6secondB8ne180100Ev, symObjAddr: 0x50E0, symBinAddr: 0x100007318, symSize: 0x24 }
  - { offset: 0x132BD, size: 0x8, addend: 0x0, symName: __ZNKSt3__122__compressed_pair_elemINS_9allocatorI8Vector3fEELi1ELb1EE5__getB8ne180100Ev, symObjAddr: 0x5104, symBinAddr: 0x10000733C, symSize: 0x14 }
  - { offset: 0x132E2, size: 0x8, addend: 0x0, symName: __ZNSt3__114__split_bufferI8Vector3fRNS_9allocatorIS1_EEEC2EmmS4_, symObjAddr: 0x5118, symBinAddr: 0x100007350, symSize: 0xE0 }
  - { offset: 0x13353, size: 0x8, addend: 0x0, symName: __ZNSt3__117__compressed_pairIP8Vector3fRNS_9allocatorIS1_EEEC1B8ne180100IDnS5_EEOT_OT0_, symObjAddr: 0x51F8, symBinAddr: 0x100007430, symSize: 0x3C }
  - { offset: 0x133A9, size: 0x8, addend: 0x0, symName: __ZNSt3__114__split_bufferI8Vector3fRNS_9allocatorIS1_EEE7__allocB8ne180100Ev, symObjAddr: 0x5274, symBinAddr: 0x1000074AC, symSize: 0x28 }
  - { offset: 0x133CD, size: 0x8, addend: 0x0, symName: __ZNSt3__114__split_bufferI8Vector3fRNS_9allocatorIS1_EEE9__end_capB8ne180100Ev, symObjAddr: 0x529C, symBinAddr: 0x1000074D4, symSize: 0x28 }
  - { offset: 0x133F1, size: 0x8, addend: 0x0, symName: __ZNSt3__117__compressed_pairIP8Vector3fRNS_9allocatorIS1_EEEC2B8ne180100IDnS5_EEOT_OT0_, symObjAddr: 0x52C4, symBinAddr: 0x1000074FC, symSize: 0x48 }
  - { offset: 0x13447, size: 0x8, addend: 0x0, symName: __ZNSt3__122__compressed_pair_elemIRNS_9allocatorI8Vector3fEELi1ELb0EEC2B8ne180100IS4_vEEOT_, symObjAddr: 0x530C, symBinAddr: 0x100007544, symSize: 0x20 }
  - { offset: 0x13487, size: 0x8, addend: 0x0, symName: __ZNSt3__19allocatorI8Vector3fE8allocateB8ne180100Em, symObjAddr: 0x532C, symBinAddr: 0x100007564, symSize: 0x8C }
  - { offset: 0x134B9, size: 0x8, addend: 0x0, symName: __ZNSt3__117__compressed_pairIP8Vector3fRNS_9allocatorIS1_EEE6secondB8ne180100Ev, symObjAddr: 0x53B8, symBinAddr: 0x1000075F0, symSize: 0x28 }
  - { offset: 0x134DE, size: 0x8, addend: 0x0, symName: __ZNSt3__122__compressed_pair_elemIRNS_9allocatorI8Vector3fEELi1ELb0EE5__getB8ne180100Ev, symObjAddr: 0x53E0, symBinAddr: 0x100007618, symSize: 0x18 }
  - { offset: 0x13502, size: 0x8, addend: 0x0, symName: __ZNSt3__117__compressed_pairIP8Vector3fRNS_9allocatorIS1_EEE5firstB8ne180100Ev, symObjAddr: 0x53F8, symBinAddr: 0x100007630, symSize: 0x24 }
  - { offset: 0x13526, size: 0x8, addend: 0x0, symName: __ZNSt3__116reverse_iteratorIP8Vector3fEC1B8ne180100ES2_, symObjAddr: 0x5504, symBinAddr: 0x10000773C, symSize: 0x34 }
  - { offset: 0x1355D, size: 0x8, addend: 0x0, symName: __ZNKSt3__116reverse_iteratorIP8Vector3fE4baseB8ne180100Ev, symObjAddr: 0x5538, symBinAddr: 0x100007770, symSize: 0x18 }
  - { offset: 0x13582, size: 0x8, addend: 0x0, symName: __ZNKSt3__16vectorI8Vector3fNS_9allocatorIS1_EEE14__annotate_newB8ne180100Em, symObjAddr: 0x558C, symBinAddr: 0x1000077C4, symSize: 0x14 }
  - { offset: 0x135B6, size: 0x8, addend: 0x0, symName: __ZNKSt3__116reverse_iteratorIP8Vector3fEdeB8ne180100Ev, symObjAddr: 0x5638, symBinAddr: 0x100007870, symSize: 0x28 }
  - { offset: 0x135E9, size: 0x8, addend: 0x0, symName: __ZNSt3__116reverse_iteratorIP8Vector3fEppB8ne180100Ev, symObjAddr: 0x5660, symBinAddr: 0x100007898, symSize: 0x20 }
  - { offset: 0x13613, size: 0x8, addend: 0x0, symName: __ZNSt3__119__to_address_helperINS_16reverse_iteratorIP8Vector3fEEvE6__callB8ne180100ERKS4_, symObjAddr: 0x56F8, symBinAddr: 0x100007930, symSize: 0x4C }
  - { offset: 0x13635, size: 0x8, addend: 0x0, symName: __ZNKSt3__116reverse_iteratorIP8Vector3fEptB8ne180100Ev, symObjAddr: 0x5744, symBinAddr: 0x10000797C, symSize: 0x24 }
  - { offset: 0x13673, size: 0x8, addend: 0x0, symName: __ZNKSt3__111__move_loopINS_17_ClassicAlgPolicyEEclB8ne180100INS_16reverse_iteratorIP8Vector3fEES7_S7_EENS_4pairIT_T1_EES9_T0_SA_, symObjAddr: 0x59E0, symBinAddr: 0x100007C18, symSize: 0xA8 }
  - { offset: 0x136E3, size: 0x8, addend: 0x0, symName: __ZNSt3__18_IterOpsINS_17_ClassicAlgPolicyEE11__iter_moveB8ne180100IRNS_16reverse_iteratorIP8Vector3fEELi0EEEDTclsr3stdE4movedeclsr3stdE7declvalIRT_EEEEOS9_, symObjAddr: 0x5BE8, symBinAddr: 0x100007E20, symSize: 0x28 }
  - { offset: 0x13715, size: 0x8, addend: 0x0, symName: __ZNSt3__18_IterOpsINS_17_ClassicAlgPolicyEE25__validate_iter_referenceB8ne180100IRNS_16reverse_iteratorIP8Vector3fEEEEvv, symObjAddr: 0x5C10, symBinAddr: 0x100007E48, symSize: 0x4 }
  - { offset: 0x13733, size: 0x8, addend: 0x0, symName: __ZNSt3__118__unwrap_iter_implINS_16reverse_iteratorIP8Vector3fEELb0EE8__unwrapB8ne180100ES4_, symObjAddr: 0x5C14, symBinAddr: 0x100007E4C, symSize: 0x24 }
  - { offset: 0x13755, size: 0x8, addend: 0x0, symName: __ZNSt3__14pairINS_16reverse_iteratorIP8Vector3fEES4_EC1B8ne180100ERKS4_S7_, symObjAddr: 0x5C38, symBinAddr: 0x100007E70, symSize: 0x3C }
  - { offset: 0x13799, size: 0x8, addend: 0x0, symName: __ZNSt3__14pairINS_16reverse_iteratorIP8Vector3fEES4_EC2B8ne180100ERKS4_S7_, symObjAddr: 0x5C74, symBinAddr: 0x100007EAC, symSize: 0x34 }
  - { offset: 0x137DE, size: 0x8, addend: 0x0, symName: __ZNSt3__118__unwrap_iter_implINS_16reverse_iteratorIP8Vector3fEELb0EE8__rewrapB8ne180100ES4_S4_, symObjAddr: 0x5CA8, symBinAddr: 0x100007EE0, symSize: 0x2C }
  - { offset: 0x1380B, size: 0x8, addend: 0x0, symName: __ZNSt3__116reverse_iteratorIP8Vector3fEC2B8ne180100ES2_, symObjAddr: 0x5CD4, symBinAddr: 0x100007F0C, symSize: 0x28 }
  - { offset: 0x13842, size: 0x8, addend: 0x0, symName: __ZNSt3__114__split_bufferI8Vector3fRNS_9allocatorIS1_EEED2Ev, symObjAddr: 0x5CFC, symBinAddr: 0x100007F34, symSize: 0x80 }
  - { offset: 0x1386C, size: 0x8, addend: 0x0, symName: __ZNSt3__114__split_bufferI8Vector3fRNS_9allocatorIS1_EEE5clearB8ne180100Ev, symObjAddr: 0x5D7C, symBinAddr: 0x100007FB4, symSize: 0x28 }
  - { offset: 0x13890, size: 0x8, addend: 0x0, symName: __ZNKSt3__114__split_bufferI8Vector3fRNS_9allocatorIS1_EEE8capacityB8ne180100Ev, symObjAddr: 0x5DA4, symBinAddr: 0x100007FDC, symSize: 0x40 }
  - { offset: 0x138B4, size: 0x8, addend: 0x0, symName: __ZNSt3__114__split_bufferI8Vector3fRNS_9allocatorIS1_EEE17__destruct_at_endB8ne180100EPS1_, symObjAddr: 0x5DE4, symBinAddr: 0x10000801C, symSize: 0x2C }
  - { offset: 0x138E7, size: 0x8, addend: 0x0, symName: __ZNSt3__114__split_bufferI8Vector3fRNS_9allocatorIS1_EEE17__destruct_at_endB8ne180100EPS1_NS_17integral_constantIbLb0EEE, symObjAddr: 0x5E10, symBinAddr: 0x100008048, symSize: 0x94 }
  - { offset: 0x13926, size: 0x8, addend: 0x0, symName: __ZNKSt3__114__split_bufferI8Vector3fRNS_9allocatorIS1_EEE9__end_capB8ne180100Ev, symObjAddr: 0x5EA4, symBinAddr: 0x1000080DC, symSize: 0x28 }
  - { offset: 0x1394A, size: 0x8, addend: 0x0, symName: __ZNKSt3__117__compressed_pairIP8Vector3fRNS_9allocatorIS1_EEE5firstB8ne180100Ev, symObjAddr: 0x5ECC, symBinAddr: 0x100008104, symSize: 0x24 }
  - { offset: 0x1396E, size: 0x8, addend: 0x0, symName: __ZNSt3__16vectorI8Vector3fNS_9allocatorIS1_EEE22__construct_one_at_endB8ne180100IJRKS1_EEEvDpOT_, symObjAddr: 0x5EF0, symBinAddr: 0x100008128, symSize: 0x98 }
  - { offset: 0x139BC, size: 0x8, addend: 0x0, symName: __ZNSt3__16vectorI8Vector3fNS_9allocatorIS1_EEE21__push_back_slow_pathIRKS1_EEPS1_OT_, symObjAddr: 0x5F88, symBinAddr: 0x1000081C0, symSize: 0xF0 }
  - { offset: 0x13A19, size: 0x8, addend: 0x0, symName: __ZNSt3__116allocator_traitsINS_9allocatorI8Vector3fEEE9constructB8ne180100IS2_JRKS2_EvEEvRS3_PT_DpOT0_, symObjAddr: 0x6078, symBinAddr: 0x1000082B0, symSize: 0x34 }
  - { offset: 0x13A70, size: 0x8, addend: 0x0, symName: __ZNSt3__19allocatorI8Vector3fE9constructB8ne180100IS1_JRKS1_EEEvPT_DpOT0_, symObjAddr: 0x60AC, symBinAddr: 0x1000082E4, symSize: 0x30 }
  - { offset: 0x13AC4, size: 0x8, addend: 0x0, symName: __ZNSt3__16vectorINS0_I8Vector3fNS_9allocatorIS1_EEEENS2_IS4_EEE9__end_capB8ne180100Ev, symObjAddr: 0x60DC, symBinAddr: 0x100008314, symSize: 0x28 }
  - { offset: 0x13AE8, size: 0x8, addend: 0x0, symName: __ZNSt3__16vectorINS0_I8Vector3fNS_9allocatorIS1_EEEENS2_IS4_EEE22__construct_one_at_endB8ne180100IJRKS4_EEEvDpOT_, symObjAddr: 0x6104, symBinAddr: 0x10000833C, symSize: 0x98 }
  - { offset: 0x13B36, size: 0x8, addend: 0x0, symName: __ZNSt3__16vectorINS0_I8Vector3fNS_9allocatorIS1_EEEENS2_IS4_EEE21__push_back_slow_pathIRKS4_EEPS4_OT_, symObjAddr: 0x619C, symBinAddr: 0x1000083D4, symSize: 0xF0 }
  - { offset: 0x13B92, size: 0x8, addend: 0x0, symName: __ZNSt3__117__compressed_pairIPNS_6vectorI8Vector3fNS_9allocatorIS2_EEEENS3_IS5_EEE5firstB8ne180100Ev, symObjAddr: 0x628C, symBinAddr: 0x1000084C4, symSize: 0x24 }
  - { offset: 0x13BB7, size: 0x8, addend: 0x0, symName: __ZNSt3__122__compressed_pair_elemIPNS_6vectorI8Vector3fNS_9allocatorIS2_EEEELi0ELb0EE5__getB8ne180100Ev, symObjAddr: 0x62B0, symBinAddr: 0x1000084E8, symSize: 0x14 }
  - { offset: 0x13BF4, size: 0x8, addend: 0x0, symName: __ZNSt3__16vectorINS0_I8Vector3fNS_9allocatorIS1_EEEENS2_IS4_EEE21_ConstructTransactionC1B8ne180100ERS6_m, symObjAddr: 0x62C4, symBinAddr: 0x1000084FC, symSize: 0x3C }
  - { offset: 0x13C3B, size: 0x8, addend: 0x0, symName: __ZNSt3__116allocator_traitsINS_9allocatorINS_6vectorI8Vector3fNS1_IS3_EEEEEEE9constructB8ne180100IS5_JRKS5_EvEEvRS6_PT_DpOT0_, symObjAddr: 0x6300, symBinAddr: 0x100008538, symSize: 0x34 }
  - { offset: 0x13C91, size: 0x8, addend: 0x0, symName: __ZNSt3__16vectorINS0_I8Vector3fNS_9allocatorIS1_EEEENS2_IS4_EEE21_ConstructTransactionD1B8ne180100Ev, symObjAddr: 0x6334, symBinAddr: 0x10000856C, symSize: 0x2C }
  - { offset: 0x13CB9, size: 0x8, addend: 0x0, symName: __ZNSt3__16vectorINS0_I8Vector3fNS_9allocatorIS1_EEEENS2_IS4_EEE21_ConstructTransactionC2B8ne180100ERS6_m, symObjAddr: 0x6360, symBinAddr: 0x100008598, symSize: 0x4C }
  - { offset: 0x13CFF, size: 0x8, addend: 0x0, symName: __ZNSt3__19allocatorINS_6vectorI8Vector3fNS0_IS2_EEEEE9constructB8ne180100IS4_JRKS4_EEEvPT_DpOT0_, symObjAddr: 0x63AC, symBinAddr: 0x1000085E4, symSize: 0x30 }
  - { offset: 0x13D54, size: 0x8, addend: 0x0, symName: __ZNSt3__16vectorI8Vector3fNS_9allocatorIS1_EEEC1ERKS4_, symObjAddr: 0x63DC, symBinAddr: 0x100008614, symSize: 0x34 }
  - { offset: 0x13D8E, size: 0x8, addend: 0x0, symName: __ZNSt3__16vectorI8Vector3fNS_9allocatorIS1_EEEC2ERKS4_, symObjAddr: 0x6410, symBinAddr: 0x100008648, symSize: 0x94 }
  - { offset: 0x13DC8, size: 0x8, addend: 0x0, symName: __ZNSt3__116allocator_traitsINS_9allocatorI8Vector3fEEE37select_on_container_copy_constructionB8ne180100IS3_vvEES3_RKS3_, symObjAddr: 0x64A4, symBinAddr: 0x1000086DC, symSize: 0x10 }
  - { offset: 0x13DFC, size: 0x8, addend: 0x0, symName: __ZNSt3__117__compressed_pairIP8Vector3fNS_9allocatorIS1_EEEC1B8ne180100IDnS4_EEOT_OT0_, symObjAddr: 0x64B4, symBinAddr: 0x1000086EC, symSize: 0x3C }
  - { offset: 0x13E52, size: 0x8, addend: 0x0, symName: __ZNSt3__16vectorI8Vector3fNS_9allocatorIS1_EEE16__init_with_sizeB8ne180100IPS1_S6_EEvT_T0_m, symObjAddr: 0x64F0, symBinAddr: 0x100008728, symSize: 0xC0 }
  - { offset: 0x13EC4, size: 0x8, addend: 0x0, symName: __ZNSt3__117__compressed_pairIP8Vector3fNS_9allocatorIS1_EEEC2B8ne180100IDnS4_EEOT_OT0_, symObjAddr: 0x65B0, symBinAddr: 0x1000087E8, symSize: 0x44 }
  - { offset: 0x13F1A, size: 0x8, addend: 0x0, symName: __ZNSt3__122__compressed_pair_elemINS_9allocatorI8Vector3fEELi1ELb1EEC2B8ne180100IS3_vEEOT_, symObjAddr: 0x65F4, symBinAddr: 0x10000882C, symSize: 0x18 }
  - { offset: 0x13F5A, size: 0x8, addend: 0x0, symName: __ZNSt3__16vectorI8Vector3fNS_9allocatorIS1_EEE11__vallocateB8ne180100Em, symObjAddr: 0x664C, symBinAddr: 0x100008884, symSize: 0xB4 }
  - { offset: 0x13F9D, size: 0x8, addend: 0x0, symName: __ZNSt3__16vectorI8Vector3fNS_9allocatorIS1_EEE18__construct_at_endIPS1_S6_EEvT_T0_m, symObjAddr: 0x6700, symBinAddr: 0x100008938, symSize: 0x94 }
  - { offset: 0x14012, size: 0x8, addend: 0x0, symName: __ZNSt3__128__exception_guard_exceptionsINS_6vectorI8Vector3fNS_9allocatorIS2_EEE16__destroy_vectorEE10__completeB8ne180100Ev, symObjAddr: 0x6794, symBinAddr: 0x1000089CC, symSize: 0x1C }
  - { offset: 0x14036, size: 0x8, addend: 0x0, symName: __ZNSt3__128__exception_guard_exceptionsINS_6vectorI8Vector3fNS_9allocatorIS2_EEE16__destroy_vectorEED1B8ne180100Ev, symObjAddr: 0x67B0, symBinAddr: 0x1000089E8, symSize: 0x2C }
  - { offset: 0x1405E, size: 0x8, addend: 0x0, symName: __ZNSt3__128__exception_guard_exceptionsINS_6vectorI8Vector3fNS_9allocatorIS2_EEE16__destroy_vectorEEC1B8ne180100ES6_, symObjAddr: 0x67DC, symBinAddr: 0x100008A14, symSize: 0x34 }
  - { offset: 0x14094, size: 0x8, addend: 0x0, symName: __ZNSt3__128__exception_guard_exceptionsINS_6vectorI8Vector3fNS_9allocatorIS2_EEE16__destroy_vectorEEC2B8ne180100ES6_, symObjAddr: 0x6810, symBinAddr: 0x100008A48, symSize: 0x24 }
  - { offset: 0x140E4, size: 0x8, addend: 0x0, symName: __ZNSt3__14pairIP8Vector3fS2_EC1B8ne180100ERKS2_S5_, symObjAddr: 0x6ABC, symBinAddr: 0x100008CF4, symSize: 0x3C }
  - { offset: 0x14128, size: 0x8, addend: 0x0, symName: __ZNSt3__14pairIP8Vector3fS2_EC2B8ne180100ERKS2_S5_, symObjAddr: 0x6AF8, symBinAddr: 0x100008D30, symSize: 0x34 }
  - { offset: 0x1416C, size: 0x8, addend: 0x0, symName: __ZNSt3__129_AllocatorDestroyRangeReverseINS_9allocatorI8Vector3fEEPS2_EC1B8ne180100ERS3_RS4_S7_, symObjAddr: 0x6B78, symBinAddr: 0x100008DB0, symSize: 0x44 }
  - { offset: 0x141C2, size: 0x8, addend: 0x0, symName: __ZNSt3__116allocator_traitsINS_9allocatorI8Vector3fEEE9constructB8ne180100IS2_JRS2_EvEEvRS3_PT_DpOT0_, symObjAddr: 0x6BBC, symBinAddr: 0x100008DF4, symSize: 0x34 }
  - { offset: 0x14219, size: 0x8, addend: 0x0, symName: __ZNSt3__128__exception_guard_exceptionsINS_29_AllocatorDestroyRangeReverseINS_9allocatorI8Vector3fEEPS3_EEE10__completeB8ne180100Ev, symObjAddr: 0x6BF0, symBinAddr: 0x100008E28, symSize: 0x1C }
  - { offset: 0x1423D, size: 0x8, addend: 0x0, symName: __ZNSt3__128__exception_guard_exceptionsINS_29_AllocatorDestroyRangeReverseINS_9allocatorI8Vector3fEEPS3_EEED1B8ne180100Ev, symObjAddr: 0x6C0C, symBinAddr: 0x100008E44, symSize: 0x2C }
  - { offset: 0x14265, size: 0x8, addend: 0x0, symName: __ZNSt3__128__exception_guard_exceptionsINS_29_AllocatorDestroyRangeReverseINS_9allocatorI8Vector3fEEPS3_EEEC1B8ne180100ES6_, symObjAddr: 0x6C38, symBinAddr: 0x100008E70, symSize: 0x34 }
  - { offset: 0x1429C, size: 0x8, addend: 0x0, symName: __ZNSt3__128__exception_guard_exceptionsINS_29_AllocatorDestroyRangeReverseINS_9allocatorI8Vector3fEEPS3_EEEC2B8ne180100ES6_, symObjAddr: 0x6C6C, symBinAddr: 0x100008EA4, symSize: 0x30 }
  - { offset: 0x142D3, size: 0x8, addend: 0x0, symName: __ZNSt3__129_AllocatorDestroyRangeReverseINS_9allocatorI8Vector3fEEPS2_EC2B8ne180100ERS3_RS4_S7_, symObjAddr: 0x6C9C, symBinAddr: 0x100008ED4, symSize: 0x38 }
  - { offset: 0x14329, size: 0x8, addend: 0x0, symName: __ZNSt3__19allocatorI8Vector3fE9constructB8ne180100IS1_JRS1_EEEvPT_DpOT0_, symObjAddr: 0x6CD4, symBinAddr: 0x100008F0C, symSize: 0x30 }
  - { offset: 0x1437D, size: 0x8, addend: 0x0, symName: __ZNSt3__128__exception_guard_exceptionsINS_29_AllocatorDestroyRangeReverseINS_9allocatorI8Vector3fEEPS3_EEED2B8ne180100Ev, symObjAddr: 0x6D04, symBinAddr: 0x100008F3C, symSize: 0x48 }
  - { offset: 0x143A5, size: 0x8, addend: 0x0, symName: __ZNKSt3__129_AllocatorDestroyRangeReverseINS_9allocatorI8Vector3fEEPS2_EclB8ne180100Ev, symObjAddr: 0x6D4C, symBinAddr: 0x100008F84, symSize: 0x68 }
  - { offset: 0x143CA, size: 0x8, addend: 0x0, symName: __ZNSt3__118__unwrap_iter_implIP8Vector3fLb1EE8__unwrapB8ne180100ES2_, symObjAddr: 0x6E24, symBinAddr: 0x10000905C, symSize: 0x24 }
  - { offset: 0x143ED, size: 0x8, addend: 0x0, symName: __ZNSt3__118__unwrap_iter_implIP8Vector3fLb1EE8__rewrapB8ne180100ES2_S2_, symObjAddr: 0x6E48, symBinAddr: 0x100009080, symSize: 0x58 }
  - { offset: 0x1441D, size: 0x8, addend: 0x0, symName: __ZNSt3__128__exception_guard_exceptionsINS_6vectorI8Vector3fNS_9allocatorIS2_EEE16__destroy_vectorEED2B8ne180100Ev, symObjAddr: 0x6EA0, symBinAddr: 0x1000090D8, symSize: 0x48 }
  - { offset: 0x14445, size: 0x8, addend: 0x0, symName: __ZNSt3__16vectorINS0_I8Vector3fNS_9allocatorIS1_EEEENS2_IS4_EEE21_ConstructTransactionD2B8ne180100Ev, symObjAddr: 0x6EE8, symBinAddr: 0x100009120, symSize: 0x20 }
  - { offset: 0x1446E, size: 0x8, addend: 0x0, symName: __ZNKSt3__16vectorINS0_I8Vector3fNS_9allocatorIS1_EEEENS2_IS4_EEE11__recommendB8ne180100Em, symObjAddr: 0x6F08, symBinAddr: 0x100009140, symSize: 0xB4 }
  - { offset: 0x144C2, size: 0x8, addend: 0x0, symName: __ZNKSt3__16vectorINS0_I8Vector3fNS_9allocatorIS1_EEEENS2_IS4_EEE4sizeB8ne180100Ev, symObjAddr: 0x6FBC, symBinAddr: 0x1000091F4, symSize: 0x28 }
  - { offset: 0x144E7, size: 0x8, addend: 0x0, symName: __ZNSt3__114__split_bufferINS_6vectorI8Vector3fNS_9allocatorIS2_EEEERNS3_IS5_EEEC1EmmS7_, symObjAddr: 0x6FE4, symBinAddr: 0x10000921C, symSize: 0x44 }
  - { offset: 0x1453C, size: 0x8, addend: 0x0, symName: __ZNSt3__114__split_bufferINS_6vectorI8Vector3fNS_9allocatorIS2_EEEERNS3_IS5_EEED1Ev, symObjAddr: 0x7138, symBinAddr: 0x100009370, symSize: 0x2C }
  - { offset: 0x14567, size: 0x8, addend: 0x0, symName: __ZNKSt3__16vectorINS0_I8Vector3fNS_9allocatorIS1_EEEENS2_IS4_EEE8max_sizeEv, symObjAddr: 0x7164, symBinAddr: 0x10000939C, symSize: 0x74 }
  - { offset: 0x1458D, size: 0x8, addend: 0x0, symName: __ZNKSt3__16vectorINS0_I8Vector3fNS_9allocatorIS1_EEEENS2_IS4_EEE20__throw_length_errorB8ne180100Ev, symObjAddr: 0x71D8, symBinAddr: 0x100009410, symSize: 0x1C }
  - { offset: 0x145BC, size: 0x8, addend: 0x0, symName: __ZNSt3__116allocator_traitsINS_9allocatorINS_6vectorI8Vector3fNS1_IS3_EEEEEEE8max_sizeB8ne180100IS6_vEEmRKS6_, symObjAddr: 0x71F4, symBinAddr: 0x10000942C, symSize: 0x24 }
  - { offset: 0x145E9, size: 0x8, addend: 0x0, symName: __ZNKSt3__16vectorINS0_I8Vector3fNS_9allocatorIS1_EEEENS2_IS4_EEE7__allocB8ne180100Ev, symObjAddr: 0x7218, symBinAddr: 0x100009450, symSize: 0x28 }
  - { offset: 0x1460E, size: 0x8, addend: 0x0, symName: __ZNKSt3__19allocatorINS_6vectorI8Vector3fNS0_IS2_EEEEE8max_sizeB8ne180100Ev, symObjAddr: 0x7240, symBinAddr: 0x100009478, symSize: 0x18 }
  - { offset: 0x14632, size: 0x8, addend: 0x0, symName: __ZNKSt3__117__compressed_pairIPNS_6vectorI8Vector3fNS_9allocatorIS2_EEEENS3_IS5_EEE6secondB8ne180100Ev, symObjAddr: 0x7258, symBinAddr: 0x100009490, symSize: 0x24 }
  - { offset: 0x14657, size: 0x8, addend: 0x0, symName: __ZNKSt3__122__compressed_pair_elemINS_9allocatorINS_6vectorI8Vector3fNS1_IS3_EEEEEELi1ELb1EE5__getB8ne180100Ev, symObjAddr: 0x727C, symBinAddr: 0x1000094B4, symSize: 0x14 }
  - { offset: 0x1467C, size: 0x8, addend: 0x0, symName: __ZNSt3__114__split_bufferINS_6vectorI8Vector3fNS_9allocatorIS2_EEEERNS3_IS5_EEEC2EmmS7_, symObjAddr: 0x7290, symBinAddr: 0x1000094C8, symSize: 0xE0 }
  - { offset: 0x146ED, size: 0x8, addend: 0x0, symName: __ZNSt3__117__compressed_pairIPNS_6vectorI8Vector3fNS_9allocatorIS2_EEEERNS3_IS5_EEEC1B8ne180100IDnS8_EEOT_OT0_, symObjAddr: 0x7370, symBinAddr: 0x1000095A8, symSize: 0x3C }
  - { offset: 0x14743, size: 0x8, addend: 0x0, symName: __ZNSt3__114__split_bufferINS_6vectorI8Vector3fNS_9allocatorIS2_EEEERNS3_IS5_EEE7__allocB8ne180100Ev, symObjAddr: 0x73EC, symBinAddr: 0x100009624, symSize: 0x28 }
  - { offset: 0x14767, size: 0x8, addend: 0x0, symName: __ZNSt3__114__split_bufferINS_6vectorI8Vector3fNS_9allocatorIS2_EEEERNS3_IS5_EEE9__end_capB8ne180100Ev, symObjAddr: 0x7414, symBinAddr: 0x10000964C, symSize: 0x28 }
  - { offset: 0x1478B, size: 0x8, addend: 0x0, symName: __ZNSt3__117__compressed_pairIPNS_6vectorI8Vector3fNS_9allocatorIS2_EEEERNS3_IS5_EEEC2B8ne180100IDnS8_EEOT_OT0_, symObjAddr: 0x743C, symBinAddr: 0x100009674, symSize: 0x48 }
  - { offset: 0x147E1, size: 0x8, addend: 0x0, symName: __ZNSt3__122__compressed_pair_elemIRNS_9allocatorINS_6vectorI8Vector3fNS1_IS3_EEEEEELi1ELb0EEC2B8ne180100IS7_vEEOT_, symObjAddr: 0x7484, symBinAddr: 0x1000096BC, symSize: 0x20 }
  - { offset: 0x14821, size: 0x8, addend: 0x0, symName: __ZNSt3__19allocatorINS_6vectorI8Vector3fNS0_IS2_EEEEE8allocateB8ne180100Em, symObjAddr: 0x74A4, symBinAddr: 0x1000096DC, symSize: 0x8C }
  - { offset: 0x14853, size: 0x8, addend: 0x0, symName: __ZNSt3__117__compressed_pairIPNS_6vectorI8Vector3fNS_9allocatorIS2_EEEERNS3_IS5_EEE6secondB8ne180100Ev, symObjAddr: 0x7530, symBinAddr: 0x100009768, symSize: 0x28 }
  - { offset: 0x14878, size: 0x8, addend: 0x0, symName: __ZNSt3__122__compressed_pair_elemIRNS_9allocatorINS_6vectorI8Vector3fNS1_IS3_EEEEEELi1ELb0EE5__getB8ne180100Ev, symObjAddr: 0x7558, symBinAddr: 0x100009790, symSize: 0x18 }
  - { offset: 0x1489C, size: 0x8, addend: 0x0, symName: __ZNSt3__117__compressed_pairIPNS_6vectorI8Vector3fNS_9allocatorIS2_EEEERNS3_IS5_EEE5firstB8ne180100Ev, symObjAddr: 0x7570, symBinAddr: 0x1000097A8, symSize: 0x24 }
  - { offset: 0x148C0, size: 0x8, addend: 0x0, symName: __ZNSt3__116reverse_iteratorIPNS_6vectorI8Vector3fNS_9allocatorIS2_EEEEEC1B8ne180100ES6_, symObjAddr: 0x76C8, symBinAddr: 0x100009900, symSize: 0x34 }
  - { offset: 0x148F7, size: 0x8, addend: 0x0, symName: __ZNKSt3__116reverse_iteratorIPNS_6vectorI8Vector3fNS_9allocatorIS2_EEEEE4baseB8ne180100Ev, symObjAddr: 0x76FC, symBinAddr: 0x100009934, symSize: 0x18 }
  - { offset: 0x1491C, size: 0x8, addend: 0x0, symName: __ZNKSt3__16vectorINS0_I8Vector3fNS_9allocatorIS1_EEEENS2_IS4_EEE14__annotate_newB8ne180100Em, symObjAddr: 0x7750, symBinAddr: 0x100009988, symSize: 0x14 }
  - { offset: 0x1494F, size: 0x8, addend: 0x0, symName: __ZNSt3__129_AllocatorDestroyRangeReverseINS_9allocatorINS_6vectorI8Vector3fNS1_IS3_EEEEEENS_16reverse_iteratorIPS5_EEEC1B8ne180100ERS6_RS9_SC_, symObjAddr: 0x77B0, symBinAddr: 0x1000099E8, symSize: 0x44 }
  - { offset: 0x149A5, size: 0x8, addend: 0x0, symName: __ZNKSt3__116reverse_iteratorIPNS_6vectorI8Vector3fNS_9allocatorIS2_EEEEEdeB8ne180100Ev, symObjAddr: 0x7860, symBinAddr: 0x100009A98, symSize: 0x28 }
  - { offset: 0x149D8, size: 0x8, addend: 0x0, symName: __ZNSt3__116reverse_iteratorIPNS_6vectorI8Vector3fNS_9allocatorIS2_EEEEEppB8ne180100Ev, symObjAddr: 0x7888, symBinAddr: 0x100009AC0, symSize: 0x20 }
  - { offset: 0x149FD, size: 0x8, addend: 0x0, symName: __ZNSt3__128__exception_guard_exceptionsINS_29_AllocatorDestroyRangeReverseINS_9allocatorINS_6vectorI8Vector3fNS2_IS4_EEEEEENS_16reverse_iteratorIPS6_EEEEE10__completeB8ne180100Ev, symObjAddr: 0x78A8, symBinAddr: 0x100009AE0, symSize: 0x1C }
  - { offset: 0x14A21, size: 0x8, addend: 0x0, symName: __ZNSt3__128__exception_guard_exceptionsINS_29_AllocatorDestroyRangeReverseINS_9allocatorINS_6vectorI8Vector3fNS2_IS4_EEEEEENS_16reverse_iteratorIPS6_EEEEED1B8ne180100Ev, symObjAddr: 0x78C4, symBinAddr: 0x100009AFC, symSize: 0x2C }
  - { offset: 0x14A49, size: 0x8, addend: 0x0, symName: __ZNSt3__128__exception_guard_exceptionsINS_29_AllocatorDestroyRangeReverseINS_9allocatorINS_6vectorI8Vector3fNS2_IS4_EEEEEENS_16reverse_iteratorIPS6_EEEEEC1B8ne180100ESB_, symObjAddr: 0x78F0, symBinAddr: 0x100009B28, symSize: 0x34 }
  - { offset: 0x14A80, size: 0x8, addend: 0x0, symName: __ZNSt3__128__exception_guard_exceptionsINS_29_AllocatorDestroyRangeReverseINS_9allocatorINS_6vectorI8Vector3fNS2_IS4_EEEEEENS_16reverse_iteratorIPS6_EEEEEC2B8ne180100ESB_, symObjAddr: 0x7924, symBinAddr: 0x100009B5C, symSize: 0x30 }
  - { offset: 0x14AB7, size: 0x8, addend: 0x0, symName: __ZNSt3__129_AllocatorDestroyRangeReverseINS_9allocatorINS_6vectorI8Vector3fNS1_IS3_EEEEEENS_16reverse_iteratorIPS5_EEEC2B8ne180100ERS6_RS9_SC_, symObjAddr: 0x7954, symBinAddr: 0x100009B8C, symSize: 0x38 }
  - { offset: 0x14B12, size: 0x8, addend: 0x0, symName: __ZNSt3__119__to_address_helperINS_16reverse_iteratorIPNS_6vectorI8Vector3fNS_9allocatorIS3_EEEEEEvE6__callB8ne180100ERKS8_, symObjAddr: 0x798C, symBinAddr: 0x100009BC4, symSize: 0x4C }
  - { offset: 0x14B34, size: 0x8, addend: 0x0, symName: __ZNKSt3__116reverse_iteratorIPNS_6vectorI8Vector3fNS_9allocatorIS2_EEEEEptB8ne180100Ev, symObjAddr: 0x79D8, symBinAddr: 0x100009C10, symSize: 0x24 }
  - { offset: 0x14B58, size: 0x8, addend: 0x0, symName: __ZNSt3__128__exception_guard_exceptionsINS_29_AllocatorDestroyRangeReverseINS_9allocatorINS_6vectorI8Vector3fNS2_IS4_EEEEEENS_16reverse_iteratorIPS6_EEEEED2B8ne180100Ev, symObjAddr: 0x79FC, symBinAddr: 0x100009C34, symSize: 0x48 }
  - { offset: 0x14B80, size: 0x8, addend: 0x0, symName: __ZNKSt3__129_AllocatorDestroyRangeReverseINS_9allocatorINS_6vectorI8Vector3fNS1_IS3_EEEEEENS_16reverse_iteratorIPS5_EEEclB8ne180100Ev, symObjAddr: 0x7A44, symBinAddr: 0x100009C7C, symSize: 0xB4 }
  - { offset: 0x14BA5, size: 0x8, addend: 0x0, symName: __ZNSt3__116reverse_iteratorINS0_IPNS_6vectorI8Vector3fNS_9allocatorIS2_EEEEEEEC1B8ne180100ES7_, symObjAddr: 0x7B68, symBinAddr: 0x100009DA0, symSize: 0x3C }
  - { offset: 0x14BDB, size: 0x8, addend: 0x0, symName: __ZNSt3__116reverse_iteratorINS0_IPNS_6vectorI8Vector3fNS_9allocatorIS2_EEEEEEEppB8ne180100Ev, symObjAddr: 0x7C28, symBinAddr: 0x100009E60, symSize: 0x30 }
  - { offset: 0x14C00, size: 0x8, addend: 0x0, symName: __ZNKSt3__116reverse_iteratorINS0_IPNS_6vectorI8Vector3fNS_9allocatorIS2_EEEEEEE4baseB8ne180100Ev, symObjAddr: 0x7C58, symBinAddr: 0x100009E90, symSize: 0x24 }
  - { offset: 0x14C2A, size: 0x8, addend: 0x0, symName: __ZNSt3__119__to_address_helperINS_16reverse_iteratorINS1_IPNS_6vectorI8Vector3fNS_9allocatorIS3_EEEEEEEEvE6__callB8ne180100ERKS9_, symObjAddr: 0x7C7C, symBinAddr: 0x100009EB4, symSize: 0x4C }
  - { offset: 0x14C4C, size: 0x8, addend: 0x0, symName: __ZNKSt3__116reverse_iteratorINS0_IPNS_6vectorI8Vector3fNS_9allocatorIS2_EEEEEEEptB8ne180100Ev, symObjAddr: 0x7CC8, symBinAddr: 0x100009F00, symSize: 0x24 }
  - { offset: 0x14C70, size: 0x8, addend: 0x0, symName: __ZNKSt3__116reverse_iteratorINS0_IPNS_6vectorI8Vector3fNS_9allocatorIS2_EEEEEEEdeB8ne180100Ev, symObjAddr: 0x7CEC, symBinAddr: 0x100009F24, symSize: 0x34 }
  - { offset: 0x14CA3, size: 0x8, addend: 0x0, symName: __ZNSt3__116reverse_iteratorIPNS_6vectorI8Vector3fNS_9allocatorIS2_EEEEEmmB8ne180100Ev, symObjAddr: 0x7D20, symBinAddr: 0x100009F58, symSize: 0x20 }
  - { offset: 0x14CC7, size: 0x8, addend: 0x0, symName: __ZNSt3__116reverse_iteratorINS0_IPNS_6vectorI8Vector3fNS_9allocatorIS2_EEEEEEEC2B8ne180100ES7_, symObjAddr: 0x7D40, symBinAddr: 0x100009F78, symSize: 0x2C }
  - { offset: 0x14CFD, size: 0x8, addend: 0x0, symName: __ZNSt3__116reverse_iteratorIPNS_6vectorI8Vector3fNS_9allocatorIS2_EEEEEC2B8ne180100ES6_, symObjAddr: 0x7D6C, symBinAddr: 0x100009FA4, symSize: 0x28 }
  - { offset: 0x14D34, size: 0x8, addend: 0x0, symName: __ZNSt3__114__split_bufferINS_6vectorI8Vector3fNS_9allocatorIS2_EEEERNS3_IS5_EEED2Ev, symObjAddr: 0x7D94, symBinAddr: 0x100009FCC, symSize: 0x80 }
  - { offset: 0x14D5E, size: 0x8, addend: 0x0, symName: __ZNSt3__114__split_bufferINS_6vectorI8Vector3fNS_9allocatorIS2_EEEERNS3_IS5_EEE5clearB8ne180100Ev, symObjAddr: 0x7E14, symBinAddr: 0x10000A04C, symSize: 0x28 }
  - { offset: 0x14D82, size: 0x8, addend: 0x0, symName: __ZNKSt3__114__split_bufferINS_6vectorI8Vector3fNS_9allocatorIS2_EEEERNS3_IS5_EEE8capacityB8ne180100Ev, symObjAddr: 0x7E3C, symBinAddr: 0x10000A074, symSize: 0x40 }
  - { offset: 0x14DA6, size: 0x8, addend: 0x0, symName: __ZNSt3__114__split_bufferINS_6vectorI8Vector3fNS_9allocatorIS2_EEEERNS3_IS5_EEE17__destruct_at_endB8ne180100EPS5_, symObjAddr: 0x7E7C, symBinAddr: 0x10000A0B4, symSize: 0x2C }
  - { offset: 0x14DD9, size: 0x8, addend: 0x0, symName: __ZNSt3__114__split_bufferINS_6vectorI8Vector3fNS_9allocatorIS2_EEEERNS3_IS5_EEE17__destruct_at_endB8ne180100EPS5_NS_17integral_constantIbLb0EEE, symObjAddr: 0x7EA8, symBinAddr: 0x10000A0E0, symSize: 0x94 }
  - { offset: 0x14E18, size: 0x8, addend: 0x0, symName: __ZNKSt3__114__split_bufferINS_6vectorI8Vector3fNS_9allocatorIS2_EEEERNS3_IS5_EEE9__end_capB8ne180100Ev, symObjAddr: 0x7F3C, symBinAddr: 0x10000A174, symSize: 0x28 }
  - { offset: 0x14E3C, size: 0x8, addend: 0x0, symName: __ZNKSt3__117__compressed_pairIPNS_6vectorI8Vector3fNS_9allocatorIS2_EEEERNS3_IS5_EEE5firstB8ne180100Ev, symObjAddr: 0x7F64, symBinAddr: 0x10000A19C, symSize: 0x24 }
  - { offset: 0x14E60, size: 0x8, addend: 0x0, symName: __ZNSt3__16vectorIfNS_9allocatorIfEEE11__make_iterB8ne180100EPf, symObjAddr: 0x7F88, symBinAddr: 0x10000A1C0, symSize: 0x30 }
  - { offset: 0x14E93, size: 0x8, addend: 0x0, symName: __ZNSt3__111__wrap_iterIPfEC1B8ne180100ES1_, symObjAddr: 0x7FB8, symBinAddr: 0x10000A1F0, symSize: 0x34 }
  - { offset: 0x14EC9, size: 0x8, addend: 0x0, symName: __ZNSt3__111__wrap_iterIPfEC2B8ne180100ES1_, symObjAddr: 0x7FEC, symBinAddr: 0x10000A224, symSize: 0x20 }
  - { offset: 0x14EFF, size: 0x8, addend: 0x0, symName: __ZNSt3__16vectorINS0_I8Vector3fNS_9allocatorIS1_EEEENS2_IS4_EEE11__make_iterB8ne180100EPS4_, symObjAddr: 0x800C, symBinAddr: 0x10000A244, symSize: 0x30 }
  - { offset: 0x14F32, size: 0x8, addend: 0x0, symName: __ZNSt3__111__wrap_iterIPNS_6vectorI8Vector3fNS_9allocatorIS2_EEEEEC1B8ne180100ES6_, symObjAddr: 0x803C, symBinAddr: 0x10000A274, symSize: 0x34 }
  - { offset: 0x14F68, size: 0x8, addend: 0x0, symName: __ZNSt3__111__wrap_iterIPNS_6vectorI8Vector3fNS_9allocatorIS2_EEEEEC2B8ne180100ES6_, symObjAddr: 0x8070, symBinAddr: 0x10000A2A8, symSize: 0x20 }
  - { offset: 0x14F9F, size: 0x8, addend: 0x0, symName: __ZNKSt3__111__wrap_iterIPfE4baseB8ne180100Ev, symObjAddr: 0x8090, symBinAddr: 0x10000A2C8, symSize: 0x18 }
  - { offset: 0x14FC3, size: 0x8, addend: 0x0, symName: __ZNKSt3__16vectorIfNS_9allocatorIfEEE6cbeginB8ne180100Ev, symObjAddr: 0x80F0, symBinAddr: 0x10000A328, symSize: 0x2C }
  - { offset: 0x14FE7, size: 0x8, addend: 0x0, symName: __ZNSt3__16vectorIfNS_9allocatorIfEEE17__destruct_at_endB8ne180100EPf, symObjAddr: 0x811C, symBinAddr: 0x10000A354, symSize: 0x4C }
  - { offset: 0x1502A, size: 0x8, addend: 0x0, symName: __ZNKSt3__111__wrap_iterIPKfE4baseB8ne180100Ev, symObjAddr: 0x81A8, symBinAddr: 0x10000A3E0, symSize: 0x18 }
  - { offset: 0x1504F, size: 0x8, addend: 0x0, symName: __ZNKSt3__16vectorIfNS_9allocatorIfEEE5beginB8ne180100Ev, symObjAddr: 0x81C0, symBinAddr: 0x10000A3F8, symSize: 0x30 }
  - { offset: 0x15075, size: 0x8, addend: 0x0, symName: __ZNKSt3__16vectorIfNS_9allocatorIfEEE11__make_iterB8ne180100EPKf, symObjAddr: 0x81F0, symBinAddr: 0x10000A428, symSize: 0x30 }
  - { offset: 0x150A8, size: 0x8, addend: 0x0, symName: __ZNSt3__111__wrap_iterIPKfEC1B8ne180100ES2_, symObjAddr: 0x8220, symBinAddr: 0x10000A458, symSize: 0x34 }
  - { offset: 0x150DE, size: 0x8, addend: 0x0, symName: __ZNSt3__111__wrap_iterIPKfEC2B8ne180100ES2_, symObjAddr: 0x8254, symBinAddr: 0x10000A48C, symSize: 0x20 }
  - { offset: 0x15115, size: 0x8, addend: 0x0, symName: __ZNKSt3__16vectorIfNS_9allocatorIfEEE17__annotate_shrinkB8ne180100Em, symObjAddr: 0x8274, symBinAddr: 0x10000A4AC, symSize: 0x14 }
  - { offset: 0x1516C, size: 0x8, addend: 0x0, symName: __ZNKSt3__114__move_trivialclB8ne180100IffLi0EEENS_4pairIPT_PT0_EES4_S4_S6_, symObjAddr: 0x8424, symBinAddr: 0x10000A65C, symSize: 0x48 }
  - { offset: 0x151D2, size: 0x8, addend: 0x0, symName: __ZNSt3__14pairIPfS1_EC1B8ne180100ERKS1_S4_, symObjAddr: 0x869C, symBinAddr: 0x10000A8D4, symSize: 0x3C }
  - { offset: 0x15216, size: 0x8, addend: 0x0, symName: __ZNSt3__14pairIPfS1_EC2B8ne180100ERKS1_S4_, symObjAddr: 0x86D8, symBinAddr: 0x10000A910, symSize: 0x34 }
  - { offset: 0x1525B, size: 0x8, addend: 0x0, symName: __ZNSt3__118__unwrap_iter_implIPfLb1EE8__unwrapB8ne180100ES1_, symObjAddr: 0x870C, symBinAddr: 0x10000A944, symSize: 0x24 }
  - { offset: 0x1527E, size: 0x8, addend: 0x0, symName: __ZNSt3__118__unwrap_iter_implIPfLb1EE8__rewrapB8ne180100ES1_S1_, symObjAddr: 0x8730, symBinAddr: 0x10000A968, symSize: 0x50 }
  - { offset: 0x152AE, size: 0x8, addend: 0x0, symName: __ZNSt3__111__wrap_iterIPKfEC2B8ne180100IPfLi0EEERKNS0_IT_EE, symObjAddr: 0x8780, symBinAddr: 0x10000A9B8, symSize: 0x3C }
  - { offset: 0x152F3, size: 0x8, addend: 0x0, symName: __ZNKSt3__16vectorINS0_I8Vector3fNS_9allocatorIS1_EEEENS2_IS4_EEE6cbeginB8ne180100Ev, symObjAddr: 0x8804, symBinAddr: 0x10000AA3C, symSize: 0x2C }
  - { offset: 0x15317, size: 0x8, addend: 0x0, symName: __ZNSt3__16vectorINS0_I8Vector3fNS_9allocatorIS1_EEEENS2_IS4_EEE17__destruct_at_endB8ne180100EPS4_, symObjAddr: 0x8830, symBinAddr: 0x10000AA68, symSize: 0x4C }
  - { offset: 0x1535A, size: 0x8, addend: 0x0, symName: __ZNKSt3__111__wrap_iterIPKNS_6vectorI8Vector3fNS_9allocatorIS2_EEEEE4baseB8ne180100Ev, symObjAddr: 0x88BC, symBinAddr: 0x10000AAF4, symSize: 0x18 }
  - { offset: 0x1537F, size: 0x8, addend: 0x0, symName: __ZNKSt3__16vectorINS0_I8Vector3fNS_9allocatorIS1_EEEENS2_IS4_EEE5beginB8ne180100Ev, symObjAddr: 0x88D4, symBinAddr: 0x10000AB0C, symSize: 0x30 }
  - { offset: 0x153A5, size: 0x8, addend: 0x0, symName: __ZNKSt3__16vectorINS0_I8Vector3fNS_9allocatorIS1_EEEENS2_IS4_EEE11__make_iterB8ne180100EPKS4_, symObjAddr: 0x8904, symBinAddr: 0x10000AB3C, symSize: 0x30 }
  - { offset: 0x153D8, size: 0x8, addend: 0x0, symName: __ZNSt3__111__wrap_iterIPKNS_6vectorI8Vector3fNS_9allocatorIS2_EEEEEC1B8ne180100ES7_, symObjAddr: 0x8934, symBinAddr: 0x10000AB6C, symSize: 0x34 }
  - { offset: 0x1540E, size: 0x8, addend: 0x0, symName: __ZNSt3__111__wrap_iterIPKNS_6vectorI8Vector3fNS_9allocatorIS2_EEEEEC2B8ne180100ES7_, symObjAddr: 0x8968, symBinAddr: 0x10000ABA0, symSize: 0x20 }
  - { offset: 0x15445, size: 0x8, addend: 0x0, symName: __ZNKSt3__16vectorINS0_I8Vector3fNS_9allocatorIS1_EEEENS2_IS4_EEE17__annotate_shrinkB8ne180100Em, symObjAddr: 0x8988, symBinAddr: 0x10000ABC0, symSize: 0x14 }
  - { offset: 0x15492, size: 0x8, addend: 0x0, symName: __ZNKSt3__111__move_loopINS_17_ClassicAlgPolicyEEclB8ne180100IPNS_6vectorI8Vector3fNS_9allocatorIS5_EEEES9_S9_EENS_4pairIT_T1_EESB_T0_SC_, symObjAddr: 0x8B38, symBinAddr: 0x10000AD70, symSize: 0x90 }
  - { offset: 0x15502, size: 0x8, addend: 0x0, symName: __ZNSt3__18_IterOpsINS_17_ClassicAlgPolicyEE11__iter_moveB8ne180100IRPNS_6vectorI8Vector3fNS_9allocatorIS5_EEEELi0EEEDTclsr3stdE4movedeclsr3stdE7declvalIRT_EEEEOSB_, symObjAddr: 0x8CA0, symBinAddr: 0x10000AED8, symSize: 0x28 }
  - { offset: 0x15534, size: 0x8, addend: 0x0, symName: __ZNSt3__16vectorI8Vector3fNS_9allocatorIS1_EEEaSB8ne180100EOS4_, symObjAddr: 0x8CC8, symBinAddr: 0x10000AF00, symSize: 0x34 }
  - { offset: 0x1556A, size: 0x8, addend: 0x0, symName: __ZNSt3__18_IterOpsINS_17_ClassicAlgPolicyEE25__validate_iter_referenceB8ne180100IRPNS_6vectorI8Vector3fNS_9allocatorIS5_EEEEEEvv, symObjAddr: 0x8CFC, symBinAddr: 0x10000AF34, symSize: 0x4 }
  - { offset: 0x15588, size: 0x8, addend: 0x0, symName: __ZNSt3__16vectorI8Vector3fNS_9allocatorIS1_EEE13__move_assignERS4_NS_17integral_constantIbLb1EEE, symObjAddr: 0x8D00, symBinAddr: 0x10000AF38, symSize: 0x94 }
  - { offset: 0x155C9, size: 0x8, addend: 0x0, symName: __ZNSt3__16vectorI8Vector3fNS_9allocatorIS1_EEE13__vdeallocateEv, symObjAddr: 0x8D94, symBinAddr: 0x10000AFCC, symSize: 0x94 }
  - { offset: 0x155EF, size: 0x8, addend: 0x0, symName: __ZNSt3__16vectorI8Vector3fNS_9allocatorIS1_EEE19__move_assign_allocB8ne180100ERS4_, symObjAddr: 0x8E28, symBinAddr: 0x10000B060, symSize: 0x2C }
  - { offset: 0x15622, size: 0x8, addend: 0x0, symName: __ZNSt3__16vectorI8Vector3fNS_9allocatorIS1_EEE5clearB8ne180100Ev, symObjAddr: 0x8E54, symBinAddr: 0x10000B08C, symSize: 0x44 }
  - { offset: 0x15656, size: 0x8, addend: 0x0, symName: __ZNKSt3__16vectorI8Vector3fNS_9allocatorIS1_EEE17__annotate_shrinkB8ne180100Em, symObjAddr: 0x8E98, symBinAddr: 0x10000B0D0, symSize: 0x14 }
  - { offset: 0x15689, size: 0x8, addend: 0x0, symName: __ZNSt3__16vectorI8Vector3fNS_9allocatorIS1_EEE19__move_assign_allocB8ne180100ERS4_NS_17integral_constantIbLb1EEE, symObjAddr: 0x8EAC, symBinAddr: 0x10000B0E4, symSize: 0x38 }
  - { offset: 0x156C8, size: 0x8, addend: 0x0, symName: __ZNSt3__118__unwrap_iter_implIPNS_6vectorI8Vector3fNS_9allocatorIS2_EEEELb1EE8__unwrapB8ne180100ES6_, symObjAddr: 0x8EE4, symBinAddr: 0x10000B11C, symSize: 0x24 }
  - { offset: 0x156EA, size: 0x8, addend: 0x0, symName: __ZNSt3__14pairIPNS_6vectorI8Vector3fNS_9allocatorIS2_EEEES6_EC1B8ne180100ERKS6_S9_, symObjAddr: 0x8F08, symBinAddr: 0x10000B140, symSize: 0x3C }
  - { offset: 0x1572E, size: 0x8, addend: 0x0, symName: __ZNSt3__14pairIPNS_6vectorI8Vector3fNS_9allocatorIS2_EEEES6_EC2B8ne180100ERKS6_S9_, symObjAddr: 0x8F44, symBinAddr: 0x10000B17C, symSize: 0x34 }
  - { offset: 0x15773, size: 0x8, addend: 0x0, symName: __ZNSt3__118__unwrap_iter_implIPNS_6vectorI8Vector3fNS_9allocatorIS2_EEEELb1EE8__rewrapB8ne180100ES6_S6_, symObjAddr: 0x8F78, symBinAddr: 0x10000B1B0, symSize: 0x58 }
  - { offset: 0x157A3, size: 0x8, addend: 0x0, symName: __ZNSt3__111__wrap_iterIPKNS_6vectorI8Vector3fNS_9allocatorIS2_EEEEEC2B8ne180100IPS5_Li0EEERKNS0_IT_EE, symObjAddr: 0x8FD0, symBinAddr: 0x10000B208, symSize: 0x3C }
  - { offset: 0x157E9, size: 0x8, addend: 0x0, symName: __ZNKSt3__111__wrap_iterIPNS_6vectorI8Vector3fNS_9allocatorIS2_EEEEE4baseB8ne180100Ev, symObjAddr: 0x900C, symBinAddr: 0x10000B244, symSize: 0x18 }
  - { offset: 0x1580E, size: 0x8, addend: 0x0, symName: __ZNSt3__111__wrap_iterIPfEppB8ne180100Ev, symObjAddr: 0x9024, symBinAddr: 0x10000B25C, symSize: 0x20 }
  - { offset: 0x15833, size: 0x8, addend: 0x0, symName: __ZNSt3__111__wrap_iterIPNS_6vectorI8Vector3fNS_9allocatorIS2_EEEEEppB8ne180100Ev, symObjAddr: 0x9044, symBinAddr: 0x10000B27C, symSize: 0x20 }
...
