---
triple:          'arm64-apple-darwin'
binary-path:     prog
relocations:
  - { offset: 0x30A5, size: 0x8, addend: 0x0, symName: __ZNSt3__112__to_addressB8ne180100IP5ShapeEEPT_S4_, symObjAddr: 0x800, symBinAddr: 0x100001C6C, symSize: 0x14 }
  - { offset: 0x30DA, size: 0x8, addend: 0x0, symName: __ZNSt3__130__libcpp_is_constant_evaluatedB8ne180100Ev, symObjAddr: 0x898, symBinAddr: 0x100001D04, symSize: 0xC }
  - { offset: 0x30F7, size: 0x8, addend: 0x0, symName: __ZNSt3__119__libcpp_deallocateB8ne180100EPvmm, symObjAddr: 0x8A4, symBinAddr: 0x100001D10, symSize: 0x30 }
  - { offset: 0x313F, size: 0x8, addend: 0x0, symName: __ZNSt3__127__do_deallocate_handle_sizeB8ne180100IJEEEvPvmDpT_, symObjAddr: 0x8D4, symBinAddr: 0x100001D40, symSize: 0x28 }
  - { offset: 0x317D, size: 0x8, addend: 0x0, symName: __ZNSt3__124__libcpp_operator_deleteB8ne180100IJPvEEEvDpT_, symObjAddr: 0x8FC, symBinAddr: 0x100001D68, symSize: 0x24 }
  - { offset: 0x31B2, size: 0x8, addend: 0x0, symName: __ZNSt3__118__constexpr_strlenB8ne180100EPKc, symObjAddr: 0xB80, symBinAddr: 0x100001FEC, symSize: 0x24 }
  - { offset: 0x411C, size: 0x8, addend: 0x0, symName: _main, symObjAddr: 0x0, symBinAddr: 0x10000146C, symSize: 0x110 }
  - { offset: 0x42B9, size: 0x8, addend: 0x0, symName: __ZNSt3__112basic_stringIcNS_11char_traitsIcEENS_9allocatorIcEEEC1B8ne180100ILi0EEEPKc, symObjAddr: 0x110, symBinAddr: 0x10000157C, symSize: 0x34 }
  - { offset: 0x4401, size: 0x8, addend: 0x0, symName: __ZN5SceneC1Ev, symObjAddr: 0x144, symBinAddr: 0x1000015B0, symSize: 0x2C }
  - { offset: 0x442C, size: 0x8, addend: 0x0, symName: __ZN5SceneD1Ev, symObjAddr: 0x180, symBinAddr: 0x1000015EC, symSize: 0x2C }
  - { offset: 0x4457, size: 0x8, addend: 0x0, symName: __ZN5SceneC2Ev, symObjAddr: 0x1AC, symBinAddr: 0x100001618, symSize: 0x74 }
  - { offset: 0x4482, size: 0x8, addend: 0x0, symName: __ZN6CameraC1Ev, symObjAddr: 0x220, symBinAddr: 0x10000168C, symSize: 0x2C }
  - { offset: 0x44AA, size: 0x8, addend: 0x0, symName: __ZNSt3__16vectorIP5ShapeNS_9allocatorIS2_EEEC1B8ne180100Ev, symObjAddr: 0x24C, symBinAddr: 0x1000016B8, symSize: 0x2C }
  - { offset: 0x44D2, size: 0x8, addend: 0x0, symName: __ZN5Ray3fC1Ev, symObjAddr: 0x278, symBinAddr: 0x1000016E4, symSize: 0x2C }
  - { offset: 0x44FA, size: 0x8, addend: 0x0, symName: __ZNSt3__16vectorIP5ShapeNS_9allocatorIS2_EEED1B8ne180100Ev, symObjAddr: 0x2A4, symBinAddr: 0x100001710, symSize: 0x2C }
  - { offset: 0x4522, size: 0x8, addend: 0x0, symName: __ZN6CameraC2Ev, symObjAddr: 0x2D0, symBinAddr: 0x10000173C, symSize: 0x6C }
  - { offset: 0x454A, size: 0x8, addend: 0x0, symName: __ZN8Vector3fC1Ev, symObjAddr: 0x33C, symBinAddr: 0x1000017A8, symSize: 0x2C }
  - { offset: 0x4572, size: 0x8, addend: 0x0, symName: __ZN8Vector3fC2Ev, symObjAddr: 0x368, symBinAddr: 0x1000017D4, symSize: 0x24 }
  - { offset: 0x459A, size: 0x8, addend: 0x0, symName: __ZNSt3__16vectorIP5ShapeNS_9allocatorIS2_EEEC2B8ne180100Ev, symObjAddr: 0x38C, symBinAddr: 0x1000017F8, symSize: 0x44 }
  - { offset: 0x45D1, size: 0x8, addend: 0x0, symName: __ZNSt3__117__compressed_pairIPP5ShapeNS_9allocatorIS2_EEEC1B8ne180100IDnNS_18__default_init_tagEEEOT_OT0_, symObjAddr: 0x3D0, symBinAddr: 0x10000183C, symSize: 0x3C }
  - { offset: 0x4627, size: 0x8, addend: 0x0, symName: __ZNSt3__117__compressed_pairIPP5ShapeNS_9allocatorIS2_EEEC2B8ne180100IDnNS_18__default_init_tagEEEOT_OT0_, symObjAddr: 0x40C, symBinAddr: 0x100001878, symSize: 0x40 }
  - { offset: 0x467D, size: 0x8, addend: 0x0, symName: __ZNSt3__122__compressed_pair_elemIPP5ShapeLi0ELb0EEC2B8ne180100IDnvEEOT_, symObjAddr: 0x44C, symBinAddr: 0x1000018B8, symSize: 0x1C }
  - { offset: 0x46BD, size: 0x8, addend: 0x0, symName: __ZNSt3__122__compressed_pair_elemINS_9allocatorIP5ShapeEELi1ELb1EEC2B8ne180100ENS_18__default_init_tagE, symObjAddr: 0x468, symBinAddr: 0x1000018D4, symSize: 0x2C }
  - { offset: 0x46EF, size: 0x8, addend: 0x0, symName: __ZNSt3__19allocatorIP5ShapeEC2B8ne180100Ev, symObjAddr: 0x494, symBinAddr: 0x100001900, symSize: 0x2C }
  - { offset: 0x4717, size: 0x8, addend: 0x0, symName: __ZNSt3__116__non_trivial_ifILb1ENS_9allocatorIP5ShapeEEEC2B8ne180100Ev, symObjAddr: 0x4C0, symBinAddr: 0x10000192C, symSize: 0x14 }
  - { offset: 0x473F, size: 0x8, addend: 0x0, symName: __ZN5Ray3fC2Ev, symObjAddr: 0x4D4, symBinAddr: 0x100001940, symSize: 0x6C }
  - { offset: 0x4767, size: 0x8, addend: 0x0, symName: __ZNSt3__16vectorIP5ShapeNS_9allocatorIS2_EEED2B8ne180100Ev, symObjAddr: 0x540, symBinAddr: 0x1000019AC, symSize: 0x3C }
  - { offset: 0x478F, size: 0x8, addend: 0x0, symName: __ZNSt3__16vectorIP5ShapeNS_9allocatorIS2_EEE16__destroy_vectorC1B8ne180100ERS5_, symObjAddr: 0x57C, symBinAddr: 0x1000019E8, symSize: 0x34 }
  - { offset: 0x47C6, size: 0x8, addend: 0x0, symName: __ZNSt3__16vectorIP5ShapeNS_9allocatorIS2_EEE16__destroy_vectorclB8ne180100Ev, symObjAddr: 0x5B0, symBinAddr: 0x100001A1C, symSize: 0x90 }
  - { offset: 0x47EA, size: 0x8, addend: 0x0, symName: __ZNSt3__16vectorIP5ShapeNS_9allocatorIS2_EEE16__destroy_vectorC2B8ne180100ERS5_, symObjAddr: 0x640, symBinAddr: 0x100001AAC, symSize: 0x20 }
  - { offset: 0x4821, size: 0x8, addend: 0x0, symName: __ZNSt3__16vectorIP5ShapeNS_9allocatorIS2_EEE7__clearB8ne180100Ev, symObjAddr: 0x660, symBinAddr: 0x100001ACC, symSize: 0x28 }
  - { offset: 0x4845, size: 0x8, addend: 0x0, symName: __ZNKSt3__16vectorIP5ShapeNS_9allocatorIS2_EEE17__annotate_deleteB8ne180100Ev, symObjAddr: 0x688, symBinAddr: 0x100001AF4, symSize: 0x10 }
  - { offset: 0x4869, size: 0x8, addend: 0x0, symName: __ZNSt3__116allocator_traitsINS_9allocatorIP5ShapeEEE10deallocateB8ne180100ERS4_PS3_m, symObjAddr: 0x698, symBinAddr: 0x100001B04, symSize: 0x34 }
  - { offset: 0x48AA, size: 0x8, addend: 0x0, symName: __ZNSt3__16vectorIP5ShapeNS_9allocatorIS2_EEE7__allocB8ne180100Ev, symObjAddr: 0x6CC, symBinAddr: 0x100001B38, symSize: 0x28 }
  - { offset: 0x48CE, size: 0x8, addend: 0x0, symName: __ZNKSt3__16vectorIP5ShapeNS_9allocatorIS2_EEE8capacityB8ne180100Ev, symObjAddr: 0x6F4, symBinAddr: 0x100001B60, symSize: 0x40 }
  - { offset: 0x48F2, size: 0x8, addend: 0x0, symName: __ZNSt3__16vectorIP5ShapeNS_9allocatorIS2_EEE22__base_destruct_at_endB8ne180100EPS2_, symObjAddr: 0x734, symBinAddr: 0x100001BA0, symSize: 0xA0 }
  - { offset: 0x4934, size: 0x8, addend: 0x0, symName: __ZNSt3__116allocator_traitsINS_9allocatorIP5ShapeEEE7destroyB8ne180100IS3_vEEvRS4_PT_, symObjAddr: 0x7D4, symBinAddr: 0x100001C40, symSize: 0x2C }
  - { offset: 0x4970, size: 0x8, addend: 0x0, symName: __ZNSt3__19allocatorIP5ShapeE7destroyB8ne180100EPS2_, symObjAddr: 0x814, symBinAddr: 0x100001C80, symSize: 0x14 }
  - { offset: 0x49A2, size: 0x8, addend: 0x0, symName: __ZNSt3__19allocatorIP5ShapeE10deallocateB8ne180100EPS2_m, symObjAddr: 0x828, symBinAddr: 0x100001C94, symSize: 0x70 }
  - { offset: 0x49E2, size: 0x8, addend: 0x0, symName: __ZNSt3__117__compressed_pairIPP5ShapeNS_9allocatorIS2_EEE6secondB8ne180100Ev, symObjAddr: 0x920, symBinAddr: 0x100001D8C, symSize: 0x24 }
  - { offset: 0x4A06, size: 0x8, addend: 0x0, symName: __ZNSt3__122__compressed_pair_elemINS_9allocatorIP5ShapeEELi1ELb1EE5__getB8ne180100Ev, symObjAddr: 0x944, symBinAddr: 0x100001DB0, symSize: 0x14 }
  - { offset: 0x4A2A, size: 0x8, addend: 0x0, symName: __ZNKSt3__16vectorIP5ShapeNS_9allocatorIS2_EEE9__end_capB8ne180100Ev, symObjAddr: 0x958, symBinAddr: 0x100001DC4, symSize: 0x28 }
  - { offset: 0x4A4E, size: 0x8, addend: 0x0, symName: __ZNKSt3__117__compressed_pairIPP5ShapeNS_9allocatorIS2_EEE5firstB8ne180100Ev, symObjAddr: 0x980, symBinAddr: 0x100001DEC, symSize: 0x24 }
  - { offset: 0x4A72, size: 0x8, addend: 0x0, symName: __ZNKSt3__122__compressed_pair_elemIPP5ShapeLi0ELb0EE5__getB8ne180100Ev, symObjAddr: 0x9A4, symBinAddr: 0x100001E10, symSize: 0x14 }
  - { offset: 0x4A96, size: 0x8, addend: 0x0, symName: __ZN5SceneD2Ev, symObjAddr: 0x9B8, symBinAddr: 0x100001E24, symSize: 0x30 }
  - { offset: 0x4AC1, size: 0x8, addend: 0x0, symName: __ZNSt3__112basic_stringIcNS_11char_traitsIcEENS_9allocatorIcEEEC2B8ne180100ILi0EEEPKc, symObjAddr: 0x9E8, symBinAddr: 0x100001E54, symSize: 0x58 }
  - { offset: 0x4AFE, size: 0x8, addend: 0x0, symName: __ZNSt3__117__compressed_pairINS_12basic_stringIcNS_11char_traitsIcEENS_9allocatorIcEEE5__repES5_EC1B8ne180100INS_18__default_init_tagESA_EEOT_OT0_, symObjAddr: 0xA40, symBinAddr: 0x100001EAC, symSize: 0x3C }
  - { offset: 0x4B54, size: 0x8, addend: 0x0, symName: __ZNSt3__111char_traitsIcE6lengthB8ne180100EPKc, symObjAddr: 0xA7C, symBinAddr: 0x100001EE8, symSize: 0x48 }
  - { offset: 0x4B76, size: 0x8, addend: 0x0, symName: __ZNSt3__117__compressed_pairINS_12basic_stringIcNS_11char_traitsIcEENS_9allocatorIcEEE5__repES5_EC2B8ne180100INS_18__default_init_tagESA_EEOT_OT0_, symObjAddr: 0xAC4, symBinAddr: 0x100001F30, symSize: 0x3C }
  - { offset: 0x4BCC, size: 0x8, addend: 0x0, symName: __ZNSt3__122__compressed_pair_elemINS_12basic_stringIcNS_11char_traitsIcEENS_9allocatorIcEEE5__repELi0ELb0EEC2B8ne180100ENS_18__default_init_tagE, symObjAddr: 0xB00, symBinAddr: 0x100001F6C, symSize: 0x14 }
  - { offset: 0x4BFE, size: 0x8, addend: 0x0, symName: __ZNSt3__122__compressed_pair_elemINS_9allocatorIcEELi1ELb1EEC2B8ne180100ENS_18__default_init_tagE, symObjAddr: 0xB14, symBinAddr: 0x100001F80, symSize: 0x2C }
  - { offset: 0x4C30, size: 0x8, addend: 0x0, symName: __ZNSt3__19allocatorIcEC2B8ne180100Ev, symObjAddr: 0xB40, symBinAddr: 0x100001FAC, symSize: 0x2C }
  - { offset: 0x4C58, size: 0x8, addend: 0x0, symName: __ZNSt3__116__non_trivial_ifILb1ENS_9allocatorIcEEEC2B8ne180100Ev, symObjAddr: 0xB6C, symBinAddr: 0x100001FD8, symSize: 0x14 }
  - { offset: 0xD4D9, size: 0x8, addend: 0x0, symName: __ZNSt3__124__put_character_sequenceB8ne180100IcNS_11char_traitsIcEEEERNS_13basic_ostreamIT_T0_EES7_PKS4_m, symObjAddr: 0x8D14, symBinAddr: 0x10000A710, symSize: 0x1F4 }
  - { offset: 0xE575, size: 0x8, addend: 0x0, symName: __ZNSt3__16__math4sqrtB8ne180100Ef, symObjAddr: 0xC54, symBinAddr: 0x100002C38, symSize: 0x18 }
  - { offset: 0xE5E6, size: 0x8, addend: 0x0, symName: __ZNSt3__1lsB8ne180100INS_11char_traitsIcEEEERNS_13basic_ostreamIcT_EES6_PKc, symObjAddr: 0x2D34, symBinAddr: 0x100004CB0, symSize: 0x48 }
  - { offset: 0xE62C, size: 0x8, addend: 0x0, symName: __ZNSt3__122__make_exception_guardB8ne180100INS_6vectorIP5ShapeNS_9allocatorIS3_EEE16__destroy_vectorEEENS_28__exception_guard_exceptionsIT_EES9_, symObjAddr: 0x4BB8, symBinAddr: 0x100006A88, symSize: 0x40 }
  - { offset: 0xE661, size: 0x8, addend: 0x0, symName: __ZNSt3__119__allocate_at_leastB8ne180100INS_9allocatorIP5ShapeEEEENS_19__allocation_resultINS_16allocator_traitsIT_E7pointerEEERS7_m, symObjAddr: 0x4EBC, symBinAddr: 0x100006D38, symSize: 0x40 }
  - { offset: 0xE6A4, size: 0x8, addend: 0x0, symName: __ZNSt3__13minB8ne180100ImEERKT_S3_S3_, symObjAddr: 0x4F60, symBinAddr: 0x100006DB4, symSize: 0x2C }
  - { offset: 0xE8F2, size: 0x8, addend: 0x0, symName: __ZNSt3__13minB8ne180100ImNS_6__lessIvvEEEERKT_S5_S5_T0_, symObjAddr: 0x4FC4, symBinAddr: 0x100006E18, symSize: 0x54 }
  - { offset: 0xE994, size: 0x8, addend: 0x0, symName: __ZNSt3__120__throw_length_errorB8ne180100EPKc, symObjAddr: 0x5068, symBinAddr: 0x100006EBC, symSize: 0x64 }
  - { offset: 0xE9BC, size: 0x8, addend: 0x0, symName: __ZNSt3__117__libcpp_allocateB8ne180100Emm, symObjAddr: 0x5208, symBinAddr: 0x100007050, symSize: 0x28 }
  - { offset: 0xE9F9, size: 0x8, addend: 0x0, symName: __ZNSt3__121__libcpp_operator_newB8ne180100IJmEEEPvDpT_, symObjAddr: 0x5230, symBinAddr: 0x100007078, symSize: 0x24 }
  - { offset: 0xEA32, size: 0x8, addend: 0x0, symName: __ZNSt3__130__uninitialized_allocator_copyB8ne180100INS_9allocatorIP5ShapeEEPS3_S5_S5_EET2_RT_T0_T1_S6_, symObjAddr: 0x5300, symBinAddr: 0x100007110, symSize: 0x80 }
  - { offset: 0xEACF, size: 0x8, addend: 0x0, symName: __ZNSt3__114__unwrap_rangeB8ne180100IPP5ShapeS3_EENS_4pairIT0_S5_EET_S7_, symObjAddr: 0x53F0, symBinAddr: 0x100007200, symSize: 0x60 }
  - { offset: 0xEB1B, size: 0x8, addend: 0x0, symName: __ZNSt3__135__uninitialized_allocator_copy_implB8ne180100INS_9allocatorIP5ShapeEEPS3_S5_S5_EET2_RT_T0_T1_S6_, symObjAddr: 0x5450, symBinAddr: 0x100007260, symSize: 0xFC }
  - { offset: 0xEBB9, size: 0x8, addend: 0x0, symName: __ZNSt3__113__unwrap_iterB8ne180100IPP5ShapeNS_18__unwrap_iter_implIS3_Lb1EEELi0EEEDTclsrT0_8__unwrapclsr3stdE7declvalIT_EEEES7_, symObjAddr: 0x554C, symBinAddr: 0x10000735C, symSize: 0x24 }
  - { offset: 0xEBFD, size: 0x8, addend: 0x0, symName: __ZNSt3__113__rewrap_iterB8ne180100IPP5ShapeS3_NS_18__unwrap_iter_implIS3_Lb1EEEEET_S6_T0_, symObjAddr: 0x5570, symBinAddr: 0x100007380, symSize: 0x50 }
  - { offset: 0xEC52, size: 0x8, addend: 0x0, symName: __ZNSt3__19make_pairB8ne180100IPP5ShapeS3_EENS_4pairINS_18__unwrap_ref_decayIT_E4typeENS5_IT0_E4typeEEEOS6_OS9_, symObjAddr: 0x55C0, symBinAddr: 0x1000073D0, symSize: 0x38 }
  - { offset: 0xED4E, size: 0x8, addend: 0x0, symName: __ZNSt3__122__make_exception_guardB8ne180100INS_29_AllocatorDestroyRangeReverseINS_9allocatorIP5ShapeEEPS4_EEEENS_28__exception_guard_exceptionsIT_EES9_, symObjAddr: 0x5668, symBinAddr: 0x100007478, symSize: 0x4C }
  - { offset: 0xED84, size: 0x8, addend: 0x0, symName: __ZNSt3__119__allocator_destroyB8ne180100INS_9allocatorIP5ShapeEENS_16reverse_iteratorIPS3_EES7_EEvRT_T0_T1_, symObjAddr: 0x58FC, symBinAddr: 0x1000076F8, symSize: 0x70 }
  - { offset: 0xEDE7, size: 0x8, addend: 0x0, symName: __ZNSt3__1neB8ne180100IPP5ShapeS3_EEbRKNS_16reverse_iteratorIT_EERKNS4_IT0_EE, symObjAddr: 0x59A0, symBinAddr: 0x10000779C, symSize: 0x48 }
  - { offset: 0xEE33, size: 0x8, addend: 0x0, symName: __ZNSt3__112__to_addressB8ne180100INS_16reverse_iteratorIPP5ShapeEEvEEu7__decayIDTclsr19__to_address_helperIT_EE6__callclsr3stdE7declvalIRKS6_EEEEES8_, symObjAddr: 0x5A14, symBinAddr: 0x1000077E4, symSize: 0x24 }
  - { offset: 0xEEE7, size: 0x8, addend: 0x0, symName: __ZNSt3__112__to_addressB8ne180100I4QuadEEPT_S3_, symObjAddr: 0x6768, symBinAddr: 0x100008164, symSize: 0x14 }
  - { offset: 0xEF1C, size: 0x8, addend: 0x0, symName: __ZNSt3__13maxB8ne180100ImEERKT_S3_S3_, symObjAddr: 0x6F58, symBinAddr: 0x100008954, symSize: 0x2C }
  - { offset: 0xEF5F, size: 0x8, addend: 0x0, symName: __ZNSt3__13maxB8ne180100ImNS_6__lessIvvEEEERKT_S5_S5_T0_, symObjAddr: 0x701C, symBinAddr: 0x100008A18, symSize: 0x54 }
  - { offset: 0xEFB9, size: 0x8, addend: 0x0, symName: __ZNSt3__119__allocate_at_leastB8ne180100INS_9allocatorI4QuadEEEENS_19__allocation_resultINS_16allocator_traitsIT_E7pointerEEERS6_m, symObjAddr: 0x7180, symBinAddr: 0x100008B7C, symSize: 0x40 }
  - { offset: 0xEFFC, size: 0x8, addend: 0x0, symName: __ZNSt3__142__uninitialized_allocator_move_if_noexceptB8ne180100INS_9allocatorI4QuadEENS_16reverse_iteratorIPS2_EES6_S6_EET2_RT_T0_T1_S7_, symObjAddr: 0x7360, symBinAddr: 0x100008D5C, symSize: 0x134 }
  - { offset: 0xF09C, size: 0x8, addend: 0x0, symName: __ZNSt3__14swapB8ne180100IP4QuadEEvRT_S4_, symObjAddr: 0x74E0, symBinAddr: 0x100008EDC, symSize: 0x3C }
  - { offset: 0xF0ED, size: 0x8, addend: 0x0, symName: __ZNSt3__122__make_exception_guardB8ne180100INS_29_AllocatorDestroyRangeReverseINS_9allocatorI4QuadEENS_16reverse_iteratorIPS3_EEEEEENS_28__exception_guard_exceptionsIT_EESA_, symObjAddr: 0x7530, symBinAddr: 0x100008F2C, symSize: 0x4C }
  - { offset: 0xF123, size: 0x8, addend: 0x0, symName: __ZNSt3__1neB8ne180100IP4QuadS2_EEbRKNS_16reverse_iteratorIT_EERKNS3_IT0_EE, symObjAddr: 0x75C0, symBinAddr: 0x100008FBC, symSize: 0x48 }
  - { offset: 0xF16F, size: 0x8, addend: 0x0, symName: __ZNSt3__112__to_addressB8ne180100INS_16reverse_iteratorIP4QuadEEvEEu7__decayIDTclsr19__to_address_helperIT_EE6__callclsr3stdE7declvalIRKS5_EEEEES7_, symObjAddr: 0x763C, symBinAddr: 0x100009038, symSize: 0x24 }
  - { offset: 0xF1CF, size: 0x8, addend: 0x0, symName: __ZNSt3__119__allocator_destroyB8ne180100INS_9allocatorI4QuadEENS_16reverse_iteratorINS4_IPS2_EEEES7_EEvRT_T0_T1_, symObjAddr: 0x7928, symBinAddr: 0x100009324, symSize: 0x70 }
  - { offset: 0xF234, size: 0x8, addend: 0x0, symName: __ZNSt3__1neB8ne180100INS_16reverse_iteratorIP4QuadEES4_EEbRKNS1_IT_EERKNS1_IT0_EE, symObjAddr: 0x79D4, symBinAddr: 0x1000093D0, symSize: 0x60 }
  - { offset: 0xF280, size: 0x8, addend: 0x0, symName: __ZNSt3__112__to_addressB8ne180100INS_16reverse_iteratorINS1_IP4QuadEEEEvEEu7__decayIDTclsr19__to_address_helperIT_EE6__callclsr3stdE7declvalIRKS6_EEEEES8_, symObjAddr: 0x7A34, symBinAddr: 0x100009430, symSize: 0x24 }
  - { offset: 0xF2E0, size: 0x8, addend: 0x0, symName: __ZNSt3__142__uninitialized_allocator_move_if_noexceptB8ne180100INS_9allocatorIP5ShapeEENS_16reverse_iteratorIPS3_EES7_S3_vEET1_RT_T0_SB_S8_, symObjAddr: 0x83FC, symBinAddr: 0x100009DF8, symSize: 0xE8 }
  - { offset: 0xF35E, size: 0x8, addend: 0x0, symName: __ZNSt3__14swapB8ne180100IPP5ShapeEEvRT_S5_, symObjAddr: 0x84E4, symBinAddr: 0x100009EE0, symSize: 0x3C }
  - { offset: 0xF3AF, size: 0x8, addend: 0x0, symName: __ZNSt3__114__construct_atB8ne180100IP5ShapeJS2_EPS2_EEPT_S5_DpOT0_, symObjAddr: 0x8520, symBinAddr: 0x100009F1C, symSize: 0x24 }
  - { offset: 0xF402, size: 0x8, addend: 0x0, symName: __ZNSt3__14moveB8ne180100INS_16reverse_iteratorIPP5ShapeEES5_EET0_T_S7_S6_, symObjAddr: 0x8544, symBinAddr: 0x100009F40, symSize: 0x78 }
  - { offset: 0xF45C, size: 0x8, addend: 0x0, symName: __ZNSt3__16__moveB8ne180100INS_17_ClassicAlgPolicyENS_16reverse_iteratorIPP5ShapeEES6_S6_EENS_4pairIT0_T2_EES8_T1_S9_, symObjAddr: 0x85BC, symBinAddr: 0x100009FB8, symSize: 0x64 }
  - { offset: 0xF4C8, size: 0x8, addend: 0x0, symName: __ZNSt3__123__dispatch_copy_or_moveB8ne180100INS_17_ClassicAlgPolicyENS_11__move_loopIS1_EENS_14__move_trivialENS_16reverse_iteratorIPP5ShapeEES9_S9_EENS_4pairIT2_T4_EESB_T3_SC_, symObjAddr: 0x8620, symBinAddr: 0x10000A01C, symSize: 0x64 }
  - { offset: 0xF546, size: 0x8, addend: 0x0, symName: __ZNSt3__121__unwrap_and_dispatchB8ne180100INS_10__overloadINS_11__move_loopINS_17_ClassicAlgPolicyEEENS_14__move_trivialEEENS_16reverse_iteratorIPP5ShapeEESB_SB_Li0EEENS_4pairIT0_T2_EESD_T1_SE_, symObjAddr: 0x8684, symBinAddr: 0x10000A080, symSize: 0x12C }
  - { offset: 0xF5D6, size: 0x8, addend: 0x0, symName: __ZNSt3__114__unwrap_rangeB8ne180100INS_16reverse_iteratorIPP5ShapeEES5_EENS_4pairIT0_S7_EET_S9_, symObjAddr: 0x87B0, symBinAddr: 0x10000A1AC, symSize: 0x84 }
  - { offset: 0xF72A, size: 0x8, addend: 0x0, symName: __ZNSt3__113__unwrap_iterB8ne180100INS_16reverse_iteratorIPP5ShapeEENS_18__unwrap_iter_implIS5_Lb0EEELi0EEEDTclsrT0_8__unwrapclsr3stdE7declvalIT_EEEES9_, symObjAddr: 0x88D4, symBinAddr: 0x10000A2D0, symSize: 0x44 }
  - { offset: 0xF76E, size: 0x8, addend: 0x0, symName: __ZNSt3__19make_pairB8ne180100INS_16reverse_iteratorIPP5ShapeEES5_EENS_4pairINS_18__unwrap_ref_decayIT_E4typeENS7_IT0_E4typeEEEOS8_OSB_, symObjAddr: 0x8918, symBinAddr: 0x10000A314, symSize: 0x38 }
  - { offset: 0xF7BD, size: 0x8, addend: 0x0, symName: __ZNSt3__114__rewrap_rangeB8ne180100INS_16reverse_iteratorIPP5ShapeEES5_EET_S6_T0_, symObjAddr: 0x8950, symBinAddr: 0x10000A34C, symSize: 0x5C }
  - { offset: 0xF809, size: 0x8, addend: 0x0, symName: __ZNSt3__113__rewrap_iterB8ne180100INS_16reverse_iteratorIPP5ShapeEES5_NS_18__unwrap_iter_implIS5_Lb0EEEEET_S8_T0_, symObjAddr: 0x89AC, symBinAddr: 0x10000A3A8, symSize: 0x88 }
  - { offset: 0xF909, size: 0x8, addend: 0x0, symName: __ZNSt3__116__pad_and_outputB8ne180100IcNS_11char_traitsIcEEEENS_19ostreambuf_iteratorIT_T0_EES6_PKS4_S8_S8_RNS_8ios_baseES4_, symObjAddr: 0x8F6C, symBinAddr: 0x10000A920, symSize: 0x248 }
  - { offset: 0xF9D8, size: 0x8, addend: 0x0, symName: __ZNSt3__112__to_addressB8ne180100IKcEEPT_S3_, symObjAddr: 0x94DC, symBinAddr: 0x10000AD98, symSize: 0x14 }
  - { offset: 0xFA40, size: 0x8, addend: 0x0, symName: __ZNSt3__19use_facetB8ne180100INS_5ctypeIcEEEERKT_RKNS_6localeE, symObjAddr: 0x97D4, symBinAddr: 0x10000B090, symSize: 0x2C }
  - { offset: 0x10C43, size: 0x8, addend: 0x0, symName: __ZSt28__throw_bad_array_new_lengthB8ne180100v, symObjAddr: 0x51C8, symBinAddr: 0x10000701C, symSize: 0x34 }
  - { offset: 0x113A4, size: 0x8, addend: 0x0, symName: __ZNSt3__16vectorI4QuadNS_9allocatorIS1_EEE26__swap_out_circular_bufferERNS_14__split_bufferIS1_RS3_EE, symObjAddr: 0x6D8C, symBinAddr: 0x100008788, symSize: 0x110 }
  - { offset: 0x11436, size: 0x8, addend: 0x0, symName: __ZNSt3__16vectorIP5ShapeNS_9allocatorIS2_EEE26__swap_out_circular_bufferERNS_14__split_bufferIS2_RS4_EE, symObjAddr: 0x8094, symBinAddr: 0x100009A90, symSize: 0x110 }
  - { offset: 0x11581, size: 0x8, addend: 0x0, symName: __ZN4Quad13est_dans_surfE8Vector3f, symObjAddr: 0x0, symBinAddr: 0x100002010, symSize: 0x138 }
  - { offset: 0x115ED, size: 0x8, addend: 0x0, symName: __Z9prod_scal8Vector3fS_, symObjAddr: 0x138, symBinAddr: 0x100002148, symSize: 0x50 }
  - { offset: 0x11635, size: 0x8, addend: 0x0, symName: __ZNK8Vector3f9normaliseEv, symObjAddr: 0x188, symBinAddr: 0x100002198, symSize: 0xA8 }
  - { offset: 0x11692, size: 0x8, addend: 0x0, symName: __ZNK8Vector3f5normeEv, symObjAddr: 0x230, symBinAddr: 0x100002240, symSize: 0x50 }
  - { offset: 0x116C4, size: 0x8, addend: 0x0, symName: __Z3absB8ne180100f, symObjAddr: 0x280, symBinAddr: 0x100002290, symSize: 0x18 }
  - { offset: 0x116F1, size: 0x8, addend: 0x0, symName: __ZN4Quad6is_hitE5Ray3f, symObjAddr: 0x298, symBinAddr: 0x1000022A8, symSize: 0x290 }
  - { offset: 0x1178F, size: 0x8, addend: 0x0, symName: __Z9prod_vect8Vector3fS_, symObjAddr: 0x528, symBinAddr: 0x100002538, symSize: 0x98 }
  - { offset: 0x117D7, size: 0x8, addend: 0x0, symName: __ZNK8Vector3fmiES_, symObjAddr: 0x5EC, symBinAddr: 0x1000025D0, symSize: 0x78 }
  - { offset: 0x11817, size: 0x8, addend: 0x0, symName: __ZNK8Vector3fplES_, symObjAddr: 0x664, symBinAddr: 0x100002648, symSize: 0x78 }
  - { offset: 0x11857, size: 0x8, addend: 0x0, symName: __ZNK8Vector3fmlEf, symObjAddr: 0x6DC, symBinAddr: 0x1000026C0, symSize: 0x70 }
  - { offset: 0x11928, size: 0x8, addend: 0x0, symName: __ZN6Sphere6is_hitE5Ray3f, symObjAddr: 0x74C, symBinAddr: 0x100002730, symSize: 0x508 }
  - { offset: 0x11A11, size: 0x8, addend: 0x0, symName: __Z4egal8Vector3fS_, symObjAddr: 0xC6C, symBinAddr: 0x100002C50, symSize: 0x84 }
  - { offset: 0x11AF8, size: 0x8, addend: 0x0, symName: __ZN4Cube6is_hitE5Ray3f, symObjAddr: 0xCF0, symBinAddr: 0x100002CD4, symSize: 0x9B8 }
  - { offset: 0x11BA8, size: 0x8, addend: 0x0, symName: __ZNSt3__16vectorI4QuadNS_9allocatorIS1_EEEC1B8ne180100Ev, symObjAddr: 0x16A8, symBinAddr: 0x10000368C, symSize: 0x2C }
  - { offset: 0x11BD1, size: 0x8, addend: 0x0, symName: __ZNSt3__16vectorI4QuadNS_9allocatorIS1_EEE9push_backB8ne180100EOS1_, symObjAddr: 0x16D4, symBinAddr: 0x1000036B8, symSize: 0x90 }
  - { offset: 0x11C15, size: 0x8, addend: 0x0, symName: __ZN4QuadC1E8Vector3fS0_S0_8Material, symObjAddr: 0x1764, symBinAddr: 0x100003748, symSize: 0xD0 }
  - { offset: 0x11C79, size: 0x8, addend: 0x0, symName: __ZN4QuadD1Ev, symObjAddr: 0x1834, symBinAddr: 0x100003818, symSize: 0x2C }
  - { offset: 0x11CA1, size: 0x8, addend: 0x0, symName: __ZNKSt3__16vectorI4QuadNS_9allocatorIS1_EEE4sizeB8ne180100Ev, symObjAddr: 0x1870, symBinAddr: 0x100003844, symSize: 0x28 }
  - { offset: 0x11CC6, size: 0x8, addend: 0x0, symName: __ZNSt3__16vectorI4QuadNS_9allocatorIS1_EEEixB8ne180100Em, symObjAddr: 0x1898, symBinAddr: 0x10000386C, symSize: 0x24 }
  - { offset: 0x11CFB, size: 0x8, addend: 0x0, symName: __ZNSt3__16vectorI4QuadNS_9allocatorIS1_EEED1B8ne180100Ev, symObjAddr: 0x18BC, symBinAddr: 0x100003890, symSize: 0x2C }
  - { offset: 0x11D23, size: 0x8, addend: 0x0, symName: __Z3maxff, symObjAddr: 0x18E8, symBinAddr: 0x1000038BC, symSize: 0x48 }
  - { offset: 0x11E1F, size: 0x8, addend: 0x0, symName: __ZN5Scene9intensiteE6answer, symObjAddr: 0x1930, symBinAddr: 0x100003904, symSize: 0xF8 }
  - { offset: 0x11E80, size: 0x8, addend: 0x0, symName: __Z10draw_colorP12SDL_Renderer8Materialf, symObjAddr: 0x1A28, symBinAddr: 0x1000039FC, symSize: 0x78 }
  - { offset: 0x11EC5, size: 0x8, addend: 0x0, symName: __ZN5Shape7reflectE5Ray3f6answer, symObjAddr: 0x1AA0, symBinAddr: 0x100003A74, symSize: 0x1A8 }
  - { offset: 0x11F36, size: 0x8, addend: 0x0, symName: __ZN5Ray3fC1E8Vector3fS0_, symObjAddr: 0x1C74, symBinAddr: 0x100003C1C, symSize: 0x5C }
  - { offset: 0x11F7B, size: 0x8, addend: 0x0, symName: __ZN8Material7couleurES_, symObjAddr: 0x1CD0, symBinAddr: 0x100003C78, symSize: 0xA4 }
  - { offset: 0x11FAF, size: 0x8, addend: 0x0, symName: __ZN8MaterialC1Effff, symObjAddr: 0x1D74, symBinAddr: 0x100003D1C, symSize: 0x4C }
  - { offset: 0x1200F, size: 0x8, addend: 0x0, symName: __Z9recursive5Ray3f5Scenei, symObjAddr: 0x1DC0, symBinAddr: 0x100003D68, symSize: 0x3B4 }
  - { offset: 0x1213B, size: 0x8, addend: 0x0, symName: __ZN6answerC1Ev, symObjAddr: 0x2174, symBinAddr: 0x10000411C, symSize: 0x2C }
  - { offset: 0x12165, size: 0x8, addend: 0x0, symName: __ZNKSt3__16vectorIP5ShapeNS_9allocatorIS2_EEE4sizeB8ne180100Ev, symObjAddr: 0x21A0, symBinAddr: 0x100004148, symSize: 0x28 }
  - { offset: 0x1218A, size: 0x8, addend: 0x0, symName: __ZNSt3__16vectorIP5ShapeNS_9allocatorIS2_EEEixB8ne180100Em, symObjAddr: 0x21C8, symBinAddr: 0x100004170, symSize: 0x24 }
  - { offset: 0x121C9, size: 0x8, addend: 0x0, symName: __ZN5SceneC1ERKS_, symObjAddr: 0x21EC, symBinAddr: 0x100004194, symSize: 0x34 }
  - { offset: 0x121FE, size: 0x8, addend: 0x0, symName: __ZN5Scene3boxE8Vector3ffff8Material, symObjAddr: 0x224C, symBinAddr: 0x1000041C8, symSize: 0x8B8 }
  - { offset: 0x122E3, size: 0x8, addend: 0x0, symName: __ZN8Vector3fC1Efff, symObjAddr: 0x2B04, symBinAddr: 0x100004A80, symSize: 0x44 }
  - { offset: 0x12336, size: 0x8, addend: 0x0, symName: __ZNSt3__16vectorIP5ShapeNS_9allocatorIS2_EEE9push_backB8ne180100EOS2_, symObjAddr: 0x2B48, symBinAddr: 0x100004AC4, symSize: 0x90 }
  - { offset: 0x1237A, size: 0x8, addend: 0x0, symName: __Z17sauvegarder_imageP12SDL_RendereriiNSt3__112basic_stringIcNS1_11char_traitsIcEENS1_9allocatorIcEEEE, symObjAddr: 0x2BD8, symBinAddr: 0x100004B54, symSize: 0x15C }
  - { offset: 0x123E1, size: 0x8, addend: 0x0, symName: __ZNKSt3__112basic_stringIcNS_11char_traitsIcEENS_9allocatorIcEEE5c_strB8ne180100Ev, symObjAddr: 0x2D7C, symBinAddr: 0x100004CF8, symSize: 0x24 }
  - { offset: 0x12406, size: 0x8, addend: 0x0, symName: __ZN5Scene6renderEiiNSt3__112basic_stringIcNS0_11char_traitsIcEENS0_9allocatorIcEEEE, symObjAddr: 0x2DA0, symBinAddr: 0x100004D1C, symSize: 0x131C }
  - { offset: 0x12863, size: 0x8, addend: 0x0, symName: __ZN3SdlC1Eii, symObjAddr: 0x40BC, symBinAddr: 0x100006038, symSize: 0x3C }
  - { offset: 0x128A9, size: 0x8, addend: 0x0, symName: __ZN4CubeC1E8Vector3fS0_S0_8Material, symObjAddr: 0x40F8, symBinAddr: 0x100006074, symSize: 0xD0 }
  - { offset: 0x1290D, size: 0x8, addend: 0x0, symName: __ZN6SphereC1E8Vector3ff8Material, symObjAddr: 0x41C8, symBinAddr: 0x100006144, symSize: 0x6C }
  - { offset: 0x12962, size: 0x8, addend: 0x0, symName: __ZN6CameraC1E8Vector3fS0_, symObjAddr: 0x4234, symBinAddr: 0x1000061B0, symSize: 0x5C }
  - { offset: 0x129A6, size: 0x8, addend: 0x0, symName: __ZN3Sdl5clearEv, symObjAddr: 0x4290, symBinAddr: 0x10000620C, symSize: 0x44 }
  - { offset: 0x129CA, size: 0x8, addend: 0x0, symName: __ZN3Sdl9drawcolorEiiii, symObjAddr: 0x42D4, symBinAddr: 0x100006250, symSize: 0x58 }
  - { offset: 0x12A2A, size: 0x8, addend: 0x0, symName: __ZN3Sdl9drawpointEii, symObjAddr: 0x432C, symBinAddr: 0x1000062A8, symSize: 0x38 }
  - { offset: 0x12A6C, size: 0x8, addend: 0x0, symName: __ZN3Sdl7presentEv, symObjAddr: 0x4364, symBinAddr: 0x1000062E0, symSize: 0x28 }
  - { offset: 0x12A90, size: 0x8, addend: 0x0, symName: __ZN3SdlD1Ev, symObjAddr: 0x438C, symBinAddr: 0x100006308, symSize: 0x2C }
  - { offset: 0x12AB9, size: 0x8, addend: 0x0, symName: __ZN4CubeD1Ev, symObjAddr: 0x43B8, symBinAddr: 0x100006334, symSize: 0x2C }
  - { offset: 0x12AE4, size: 0x8, addend: 0x0, symName: __ZN4CubeD0Ev, symObjAddr: 0x43E4, symBinAddr: 0x100006360, symSize: 0x58 }
  - { offset: 0x12B0E, size: 0x8, addend: 0x0, symName: __ZN4QuadD0Ev, symObjAddr: 0x443C, symBinAddr: 0x1000063B8, symSize: 0x58 }
  - { offset: 0x12B36, size: 0x8, addend: 0x0, symName: __ZN6SphereD1Ev, symObjAddr: 0x4494, symBinAddr: 0x100006410, symSize: 0x2C }
  - { offset: 0x12B61, size: 0x8, addend: 0x0, symName: __ZN6SphereD0Ev, symObjAddr: 0x44C0, symBinAddr: 0x10000643C, symSize: 0x58 }
  - { offset: 0x12B8C, size: 0x8, addend: 0x0, symName: __ZN4QuadC2E8Vector3fS0_S0_8Material, symObjAddr: 0x453C, symBinAddr: 0x100006494, symSize: 0x110 }
  - { offset: 0x12BF1, size: 0x8, addend: 0x0, symName: __ZN5ShapeC2Ev, symObjAddr: 0x464C, symBinAddr: 0x1000065A4, symSize: 0x4C }
  - { offset: 0x12C1B, size: 0x8, addend: 0x0, symName: __ZN5ShapeD2Ev, symObjAddr: 0x4698, symBinAddr: 0x1000065F0, symSize: 0x14 }
  - { offset: 0x12C43, size: 0x8, addend: 0x0, symName: __ZN8MaterialC1Ev, symObjAddr: 0x46AC, symBinAddr: 0x100006604, symSize: 0x2C }
  - { offset: 0x12C6B, size: 0x8, addend: 0x0, symName: __ZN5ShapeD1Ev, symObjAddr: 0x46D8, symBinAddr: 0x100006630, symSize: 0x14 }
  - { offset: 0x12C93, size: 0x8, addend: 0x0, symName: __ZN5ShapeD0Ev, symObjAddr: 0x46EC, symBinAddr: 0x100006644, symSize: 0xC }
  - { offset: 0x12CBB, size: 0x8, addend: 0x0, symName: __ZN8MaterialC2Ev, symObjAddr: 0x46F8, symBinAddr: 0x100006650, symSize: 0x28 }
  - { offset: 0x12CE3, size: 0x8, addend: 0x0, symName: __ZN4QuadD2Ev, symObjAddr: 0x4720, symBinAddr: 0x100006678, symSize: 0x2C }
  - { offset: 0x12D0B, size: 0x8, addend: 0x0, symName: __ZN5Ray3fC2E8Vector3fS0_, symObjAddr: 0x47B8, symBinAddr: 0x1000066A4, symSize: 0x70 }
  - { offset: 0x12D4F, size: 0x8, addend: 0x0, symName: __ZN8MaterialC2Effff, symObjAddr: 0x4828, symBinAddr: 0x100006714, symSize: 0x44 }
  - { offset: 0x12DB0, size: 0x8, addend: 0x0, symName: __ZN6answerC2Ev, symObjAddr: 0x486C, symBinAddr: 0x100006758, symSize: 0x3C }
  - { offset: 0x12DDA, size: 0x8, addend: 0x0, symName: __ZN5SceneC2ERKS_, symObjAddr: 0x48A8, symBinAddr: 0x100006794, symSize: 0x64 }
  - { offset: 0x12E0F, size: 0x8, addend: 0x0, symName: __ZNSt3__16vectorIP5ShapeNS_9allocatorIS2_EEEC1ERKS5_, symObjAddr: 0x490C, symBinAddr: 0x1000067F8, symSize: 0x34 }
  - { offset: 0x12E49, size: 0x8, addend: 0x0, symName: __ZNSt3__16vectorIP5ShapeNS_9allocatorIS2_EEEC2ERKS5_, symObjAddr: 0x4940, symBinAddr: 0x10000682C, symSize: 0x94 }
  - { offset: 0x12E8D, size: 0x8, addend: 0x0, symName: __ZNSt3__116allocator_traitsINS_9allocatorIP5ShapeEEE37select_on_container_copy_constructionB8ne180100IS4_vvEES4_RKS4_, symObjAddr: 0x49D4, symBinAddr: 0x1000068C0, symSize: 0x10 }
  - { offset: 0x12EBB, size: 0x8, addend: 0x0, symName: __ZNKSt3__16vectorIP5ShapeNS_9allocatorIS2_EEE7__allocB8ne180100Ev, symObjAddr: 0x49E4, symBinAddr: 0x1000068D0, symSize: 0x28 }
  - { offset: 0x12EEE, size: 0x8, addend: 0x0, symName: __ZNSt3__117__compressed_pairIPP5ShapeNS_9allocatorIS2_EEEC1B8ne180100IDnS5_EEOT_OT0_, symObjAddr: 0x4A0C, symBinAddr: 0x1000068F8, symSize: 0x3C }
  - { offset: 0x12F44, size: 0x8, addend: 0x0, symName: __ZNSt3__16vectorIP5ShapeNS_9allocatorIS2_EEE16__init_with_sizeB8ne180100IPS2_S7_EEvT_T0_m, symObjAddr: 0x4A48, symBinAddr: 0x100006934, symSize: 0xC0 }
  - { offset: 0x12FB6, size: 0x8, addend: 0x0, symName: __ZNKSt3__117__compressed_pairIPP5ShapeNS_9allocatorIS2_EEE6secondB8ne180100Ev, symObjAddr: 0x4B08, symBinAddr: 0x1000069F4, symSize: 0x24 }
  - { offset: 0x12FDA, size: 0x8, addend: 0x0, symName: __ZNKSt3__122__compressed_pair_elemINS_9allocatorIP5ShapeEELi1ELb1EE5__getB8ne180100Ev, symObjAddr: 0x4B2C, symBinAddr: 0x100006A18, symSize: 0x14 }
  - { offset: 0x12FFE, size: 0x8, addend: 0x0, symName: __ZNSt3__117__compressed_pairIPP5ShapeNS_9allocatorIS2_EEEC2B8ne180100IDnS5_EEOT_OT0_, symObjAddr: 0x4B40, symBinAddr: 0x100006A2C, symSize: 0x44 }
  - { offset: 0x13054, size: 0x8, addend: 0x0, symName: __ZNSt3__122__compressed_pair_elemINS_9allocatorIP5ShapeEELi1ELb1EEC2B8ne180100IS4_vEEOT_, symObjAddr: 0x4BA0, symBinAddr: 0x100006A70, symSize: 0x18 }
  - { offset: 0x13094, size: 0x8, addend: 0x0, symName: __ZNSt3__16vectorIP5ShapeNS_9allocatorIS2_EEE11__vallocateB8ne180100Em, symObjAddr: 0x4C2C, symBinAddr: 0x100006AC8, symSize: 0xAC }
  - { offset: 0x130D7, size: 0x8, addend: 0x0, symName: __ZNSt3__16vectorIP5ShapeNS_9allocatorIS2_EEE18__construct_at_endIPS2_S7_EEvT_T0_m, symObjAddr: 0x4CD8, symBinAddr: 0x100006B74, symSize: 0x94 }
  - { offset: 0x1314B, size: 0x8, addend: 0x0, symName: __ZNSt3__128__exception_guard_exceptionsINS_6vectorIP5ShapeNS_9allocatorIS3_EEE16__destroy_vectorEE10__completeB8ne180100Ev, symObjAddr: 0x4D6C, symBinAddr: 0x100006C08, symSize: 0x1C }
  - { offset: 0x1316F, size: 0x8, addend: 0x0, symName: __ZNSt3__128__exception_guard_exceptionsINS_6vectorIP5ShapeNS_9allocatorIS3_EEE16__destroy_vectorEED1B8ne180100Ev, symObjAddr: 0x4D88, symBinAddr: 0x100006C24, symSize: 0x2C }
  - { offset: 0x13197, size: 0x8, addend: 0x0, symName: __ZNSt3__128__exception_guard_exceptionsINS_6vectorIP5ShapeNS_9allocatorIS3_EEE16__destroy_vectorEEC1B8ne180100ES7_, symObjAddr: 0x4DB4, symBinAddr: 0x100006C50, symSize: 0x34 }
  - { offset: 0x131CD, size: 0x8, addend: 0x0, symName: __ZNSt3__128__exception_guard_exceptionsINS_6vectorIP5ShapeNS_9allocatorIS3_EEE16__destroy_vectorEEC2B8ne180100ES7_, symObjAddr: 0x4DE8, symBinAddr: 0x100006C84, symSize: 0x24 }
  - { offset: 0x13204, size: 0x8, addend: 0x0, symName: __ZNKSt3__16vectorIP5ShapeNS_9allocatorIS2_EEE8max_sizeEv, symObjAddr: 0x4E2C, symBinAddr: 0x100006CA8, symSize: 0x74 }
  - { offset: 0x1322A, size: 0x8, addend: 0x0, symName: __ZNKSt3__16vectorIP5ShapeNS_9allocatorIS2_EEE20__throw_length_errorB8ne180100Ev, symObjAddr: 0x4EA0, symBinAddr: 0x100006D1C, symSize: 0x1C }
  - { offset: 0x1324E, size: 0x8, addend: 0x0, symName: __ZNSt3__16vectorIP5ShapeNS_9allocatorIS2_EEE9__end_capB8ne180100Ev, symObjAddr: 0x4F24, symBinAddr: 0x100006D78, symSize: 0x28 }
  - { offset: 0x13272, size: 0x8, addend: 0x0, symName: __ZNKSt3__16vectorIP5ShapeNS_9allocatorIS2_EEE14__annotate_newB8ne180100Em, symObjAddr: 0x4F4C, symBinAddr: 0x100006DA0, symSize: 0x14 }
  - { offset: 0x132A5, size: 0x8, addend: 0x0, symName: __ZNSt3__116allocator_traitsINS_9allocatorIP5ShapeEEE8max_sizeB8ne180100IS4_vEEmRKS4_, symObjAddr: 0x4F8C, symBinAddr: 0x100006DE0, symSize: 0x24 }
  - { offset: 0x132D3, size: 0x8, addend: 0x0, symName: __ZNSt3__114numeric_limitsIlE3maxB8ne180100Ev, symObjAddr: 0x4FB0, symBinAddr: 0x100006E04, symSize: 0x14 }
  - { offset: 0x132FA, size: 0x8, addend: 0x0, symName: __ZNKSt3__16__lessIvvEclB8ne180100ImmEEbRKT_RKT0_, symObjAddr: 0x5018, symBinAddr: 0x100006E6C, symSize: 0x34 }
  - { offset: 0x1334C, size: 0x8, addend: 0x0, symName: __ZNKSt3__19allocatorIP5ShapeE8max_sizeB8ne180100Ev, symObjAddr: 0x504C, symBinAddr: 0x100006EA0, symSize: 0x14 }
  - { offset: 0x13371, size: 0x8, addend: 0x0, symName: __ZNSt3__123__libcpp_numeric_limitsIlLb1EE3maxB8ne180100Ev, symObjAddr: 0x5060, symBinAddr: 0x100006EB4, symSize: 0x8 }
  - { offset: 0x13384, size: 0x8, addend: 0x0, symName: __ZNSt12length_errorC1B8ne180100EPKc, symObjAddr: 0x50CC, symBinAddr: 0x100006F20, symSize: 0x34 }
  - { offset: 0x133BA, size: 0x8, addend: 0x0, symName: __ZNSt12length_errorC2B8ne180100EPKc, symObjAddr: 0x5100, symBinAddr: 0x100006F54, symSize: 0x44 }
  - { offset: 0x133F0, size: 0x8, addend: 0x0, symName: __ZNSt3__19allocatorIP5ShapeE8allocateB8ne180100Em, symObjAddr: 0x5144, symBinAddr: 0x100006F98, symSize: 0x84 }
  - { offset: 0x13422, size: 0x8, addend: 0x0, symName: __ZNSt3__117__compressed_pairIPP5ShapeNS_9allocatorIS2_EEE5firstB8ne180100Ev, symObjAddr: 0x528C, symBinAddr: 0x10000709C, symSize: 0x24 }
  - { offset: 0x13446, size: 0x8, addend: 0x0, symName: __ZNSt3__122__compressed_pair_elemIPP5ShapeLi0ELb0EE5__getB8ne180100Ev, symObjAddr: 0x52B0, symBinAddr: 0x1000070C0, symSize: 0x14 }
  - { offset: 0x13483, size: 0x8, addend: 0x0, symName: __ZNSt3__16vectorIP5ShapeNS_9allocatorIS2_EEE21_ConstructTransactionC1B8ne180100ERS5_m, symObjAddr: 0x52C4, symBinAddr: 0x1000070D4, symSize: 0x3C }
  - { offset: 0x134C9, size: 0x8, addend: 0x0, symName: __ZNSt3__16vectorIP5ShapeNS_9allocatorIS2_EEE21_ConstructTransactionD1B8ne180100Ev, symObjAddr: 0x5380, symBinAddr: 0x100007190, symSize: 0x2C }
  - { offset: 0x134F1, size: 0x8, addend: 0x0, symName: __ZNSt3__16vectorIP5ShapeNS_9allocatorIS2_EEE21_ConstructTransactionC2B8ne180100ERS5_m, symObjAddr: 0x53AC, symBinAddr: 0x1000071BC, symSize: 0x44 }
  - { offset: 0x13550, size: 0x8, addend: 0x0, symName: __ZNSt3__14pairIPP5ShapeS3_EC1B8ne180100ERKS3_S6_, symObjAddr: 0x55F8, symBinAddr: 0x100007408, symSize: 0x3C }
  - { offset: 0x13594, size: 0x8, addend: 0x0, symName: __ZNSt3__14pairIPP5ShapeS3_EC2B8ne180100ERKS3_S6_, symObjAddr: 0x5634, symBinAddr: 0x100007444, symSize: 0x34 }
  - { offset: 0x135D8, size: 0x8, addend: 0x0, symName: __ZNSt3__129_AllocatorDestroyRangeReverseINS_9allocatorIP5ShapeEEPS3_EC1B8ne180100ERS4_RS5_S8_, symObjAddr: 0x56B4, symBinAddr: 0x1000074C4, symSize: 0x44 }
  - { offset: 0x1362D, size: 0x8, addend: 0x0, symName: __ZNSt3__116allocator_traitsINS_9allocatorIP5ShapeEEE9constructB8ne180100IS3_JRS3_EvEEvRS4_PT_DpOT0_, symObjAddr: 0x56F8, symBinAddr: 0x100007508, symSize: 0x34 }
  - { offset: 0x13683, size: 0x8, addend: 0x0, symName: __ZNSt3__128__exception_guard_exceptionsINS_29_AllocatorDestroyRangeReverseINS_9allocatorIP5ShapeEEPS4_EEE10__completeB8ne180100Ev, symObjAddr: 0x5740, symBinAddr: 0x10000753C, symSize: 0x1C }
  - { offset: 0x136A7, size: 0x8, addend: 0x0, symName: __ZNSt3__128__exception_guard_exceptionsINS_29_AllocatorDestroyRangeReverseINS_9allocatorIP5ShapeEEPS4_EEED1B8ne180100Ev, symObjAddr: 0x575C, symBinAddr: 0x100007558, symSize: 0x2C }
  - { offset: 0x136CF, size: 0x8, addend: 0x0, symName: __ZNSt3__128__exception_guard_exceptionsINS_29_AllocatorDestroyRangeReverseINS_9allocatorIP5ShapeEEPS4_EEEC1B8ne180100ES7_, symObjAddr: 0x5788, symBinAddr: 0x100007584, symSize: 0x34 }
  - { offset: 0x13706, size: 0x8, addend: 0x0, symName: __ZNSt3__128__exception_guard_exceptionsINS_29_AllocatorDestroyRangeReverseINS_9allocatorIP5ShapeEEPS4_EEEC2B8ne180100ES7_, symObjAddr: 0x57BC, symBinAddr: 0x1000075B8, symSize: 0x30 }
  - { offset: 0x1373D, size: 0x8, addend: 0x0, symName: __ZNSt3__129_AllocatorDestroyRangeReverseINS_9allocatorIP5ShapeEEPS3_EC2B8ne180100ERS4_RS5_S8_, symObjAddr: 0x57EC, symBinAddr: 0x1000075E8, symSize: 0x38 }
  - { offset: 0x13792, size: 0x8, addend: 0x0, symName: __ZNSt3__19allocatorIP5ShapeE9constructB8ne180100IS2_JRS2_EEEvPT_DpOT0_, symObjAddr: 0x5824, symBinAddr: 0x100007620, symSize: 0x28 }
  - { offset: 0x137E6, size: 0x8, addend: 0x0, symName: __ZNSt3__128__exception_guard_exceptionsINS_29_AllocatorDestroyRangeReverseINS_9allocatorIP5ShapeEEPS4_EEED2B8ne180100Ev, symObjAddr: 0x584C, symBinAddr: 0x100007648, symSize: 0x48 }
  - { offset: 0x1380E, size: 0x8, addend: 0x0, symName: __ZNKSt3__129_AllocatorDestroyRangeReverseINS_9allocatorIP5ShapeEEPS3_EclB8ne180100Ev, symObjAddr: 0x5894, symBinAddr: 0x100007690, symSize: 0x68 }
  - { offset: 0x13832, size: 0x8, addend: 0x0, symName: __ZNSt3__116reverse_iteratorIPP5ShapeEC1B8ne180100ES3_, symObjAddr: 0x596C, symBinAddr: 0x100007768, symSize: 0x34 }
  - { offset: 0x13868, size: 0x8, addend: 0x0, symName: __ZNSt3__116reverse_iteratorIPP5ShapeEppB8ne180100Ev, symObjAddr: 0x5A38, symBinAddr: 0x100007808, symSize: 0x20 }
  - { offset: 0x1388C, size: 0x8, addend: 0x0, symName: __ZNKSt3__116reverse_iteratorIPP5ShapeE4baseB8ne180100Ev, symObjAddr: 0x5A58, symBinAddr: 0x100007828, symSize: 0x18 }
  - { offset: 0x138B5, size: 0x8, addend: 0x0, symName: __ZNSt3__119__to_address_helperINS_16reverse_iteratorIPP5ShapeEEvE6__callB8ne180100ERKS5_, symObjAddr: 0x5A84, symBinAddr: 0x100007840, symSize: 0x4C }
  - { offset: 0x138D7, size: 0x8, addend: 0x0, symName: __ZNKSt3__116reverse_iteratorIPP5ShapeEptB8ne180100Ev, symObjAddr: 0x5AD0, symBinAddr: 0x10000788C, symSize: 0x24 }
  - { offset: 0x138FB, size: 0x8, addend: 0x0, symName: __ZNKSt3__116reverse_iteratorIPP5ShapeEdeB8ne180100Ev, symObjAddr: 0x5AF4, symBinAddr: 0x1000078B0, symSize: 0x28 }
  - { offset: 0x1392D, size: 0x8, addend: 0x0, symName: __ZNSt3__116reverse_iteratorIPP5ShapeEC2B8ne180100ES3_, symObjAddr: 0x5B1C, symBinAddr: 0x1000078D8, symSize: 0x28 }
  - { offset: 0x13963, size: 0x8, addend: 0x0, symName: __ZNSt3__118__unwrap_iter_implIPP5ShapeLb1EE8__unwrapB8ne180100ES3_, symObjAddr: 0x5B44, symBinAddr: 0x100007900, symSize: 0x24 }
  - { offset: 0x13985, size: 0x8, addend: 0x0, symName: __ZNSt3__118__unwrap_iter_implIPP5ShapeLb1EE8__rewrapB8ne180100ES3_S3_, symObjAddr: 0x5B68, symBinAddr: 0x100007924, symSize: 0x50 }
  - { offset: 0x139B5, size: 0x8, addend: 0x0, symName: __ZNSt3__16vectorIP5ShapeNS_9allocatorIS2_EEE21_ConstructTransactionD2B8ne180100Ev, symObjAddr: 0x5BB8, symBinAddr: 0x100007974, symSize: 0x20 }
  - { offset: 0x139DD, size: 0x8, addend: 0x0, symName: __ZNSt3__128__exception_guard_exceptionsINS_6vectorIP5ShapeNS_9allocatorIS3_EEE16__destroy_vectorEED2B8ne180100Ev, symObjAddr: 0x5BD8, symBinAddr: 0x100007994, symSize: 0x48 }
  - { offset: 0x13A05, size: 0x8, addend: 0x0, symName: __ZN8Vector3fC2Efff, symObjAddr: 0x5FE0, symBinAddr: 0x1000079DC, symSize: 0x38 }
  - { offset: 0x13A57, size: 0x8, addend: 0x0, symName: __ZN3SdlC2Eii, symObjAddr: 0x6018, symBinAddr: 0x100007A14, symSize: 0x88 }
  - { offset: 0x13A9D, size: 0x8, addend: 0x0, symName: __ZN3Sdl4initEv, symObjAddr: 0x60A0, symBinAddr: 0x100007A9C, symSize: 0x24 }
  - { offset: 0x13AC1, size: 0x8, addend: 0x0, symName: __ZN4CubeC2E8Vector3fS0_S0_8Material, symObjAddr: 0x60C4, symBinAddr: 0x100007AC0, symSize: 0x118 }
  - { offset: 0x13B25, size: 0x8, addend: 0x0, symName: __ZN6SphereC2E8Vector3ff8Material, symObjAddr: 0x61DC, symBinAddr: 0x100007BD8, symSize: 0x7C }
  - { offset: 0x13B7A, size: 0x8, addend: 0x0, symName: __ZN6CameraC2E8Vector3fS0_, symObjAddr: 0x6258, symBinAddr: 0x100007C54, symSize: 0x70 }
  - { offset: 0x13BBE, size: 0x8, addend: 0x0, symName: __ZN3SdlD2Ev, symObjAddr: 0x62C8, symBinAddr: 0x100007CC4, symSize: 0x40 }
  - { offset: 0x13BE7, size: 0x8, addend: 0x0, symName: __ZN4CubeD2Ev, symObjAddr: 0x6308, symBinAddr: 0x100007D04, symSize: 0x2C }
  - { offset: 0x13C11, size: 0x8, addend: 0x0, symName: __ZN6SphereD2Ev, symObjAddr: 0x6334, symBinAddr: 0x100007D30, symSize: 0x2C }
  - { offset: 0x13C3C, size: 0x8, addend: 0x0, symName: __ZNSt3__16vectorI4QuadNS_9allocatorIS1_EEEC2B8ne180100Ev, symObjAddr: 0x6360, symBinAddr: 0x100007D5C, symSize: 0x44 }
  - { offset: 0x13C69, size: 0x8, addend: 0x0, symName: __ZNSt3__117__compressed_pairIP4QuadNS_9allocatorIS1_EEEC1B8ne180100IDnNS_18__default_init_tagEEEOT_OT0_, symObjAddr: 0x63A4, symBinAddr: 0x100007DA0, symSize: 0x3C }
  - { offset: 0x13CBF, size: 0x8, addend: 0x0, symName: __ZNSt3__117__compressed_pairIP4QuadNS_9allocatorIS1_EEEC2B8ne180100IDnNS_18__default_init_tagEEEOT_OT0_, symObjAddr: 0x63E0, symBinAddr: 0x100007DDC, symSize: 0x40 }
  - { offset: 0x13D15, size: 0x8, addend: 0x0, symName: __ZNSt3__122__compressed_pair_elemIP4QuadLi0ELb0EEC2B8ne180100IDnvEEOT_, symObjAddr: 0x6420, symBinAddr: 0x100007E1C, symSize: 0x1C }
  - { offset: 0x13D55, size: 0x8, addend: 0x0, symName: __ZNSt3__122__compressed_pair_elemINS_9allocatorI4QuadEELi1ELb1EEC2B8ne180100ENS_18__default_init_tagE, symObjAddr: 0x643C, symBinAddr: 0x100007E38, symSize: 0x2C }
  - { offset: 0x13D87, size: 0x8, addend: 0x0, symName: __ZNSt3__19allocatorI4QuadEC2B8ne180100Ev, symObjAddr: 0x6468, symBinAddr: 0x100007E64, symSize: 0x2C }
  - { offset: 0x13DAF, size: 0x8, addend: 0x0, symName: __ZNSt3__116__non_trivial_ifILb1ENS_9allocatorI4QuadEEEC2B8ne180100Ev, symObjAddr: 0x6494, symBinAddr: 0x100007E90, symSize: 0x14 }
  - { offset: 0x13DD7, size: 0x8, addend: 0x0, symName: __ZNSt3__16vectorI4QuadNS_9allocatorIS1_EEED2B8ne180100Ev, symObjAddr: 0x64A8, symBinAddr: 0x100007EA4, symSize: 0x3C }
  - { offset: 0x13DFF, size: 0x8, addend: 0x0, symName: __ZNSt3__16vectorI4QuadNS_9allocatorIS1_EEE16__destroy_vectorC1B8ne180100ERS4_, symObjAddr: 0x64E4, symBinAddr: 0x100007EE0, symSize: 0x34 }
  - { offset: 0x13E36, size: 0x8, addend: 0x0, symName: __ZNSt3__16vectorI4QuadNS_9allocatorIS1_EEE16__destroy_vectorclB8ne180100Ev, symObjAddr: 0x6518, symBinAddr: 0x100007F14, symSize: 0x90 }
  - { offset: 0x13E5A, size: 0x8, addend: 0x0, symName: __ZNSt3__16vectorI4QuadNS_9allocatorIS1_EEE16__destroy_vectorC2B8ne180100ERS4_, symObjAddr: 0x65A8, symBinAddr: 0x100007FA4, symSize: 0x20 }
  - { offset: 0x13E91, size: 0x8, addend: 0x0, symName: __ZNSt3__16vectorI4QuadNS_9allocatorIS1_EEE7__clearB8ne180100Ev, symObjAddr: 0x65C8, symBinAddr: 0x100007FC4, symSize: 0x28 }
  - { offset: 0x13EB5, size: 0x8, addend: 0x0, symName: __ZNKSt3__16vectorI4QuadNS_9allocatorIS1_EEE17__annotate_deleteB8ne180100Ev, symObjAddr: 0x65F0, symBinAddr: 0x100007FEC, symSize: 0x10 }
  - { offset: 0x13ED9, size: 0x8, addend: 0x0, symName: __ZNSt3__116allocator_traitsINS_9allocatorI4QuadEEE10deallocateB8ne180100ERS3_PS2_m, symObjAddr: 0x6600, symBinAddr: 0x100007FFC, symSize: 0x34 }
  - { offset: 0x13F1A, size: 0x8, addend: 0x0, symName: __ZNSt3__16vectorI4QuadNS_9allocatorIS1_EEE7__allocB8ne180100Ev, symObjAddr: 0x6634, symBinAddr: 0x100008030, symSize: 0x28 }
  - { offset: 0x13F3E, size: 0x8, addend: 0x0, symName: __ZNKSt3__16vectorI4QuadNS_9allocatorIS1_EEE8capacityB8ne180100Ev, symObjAddr: 0x665C, symBinAddr: 0x100008058, symSize: 0x40 }
  - { offset: 0x13F62, size: 0x8, addend: 0x0, symName: __ZNSt3__16vectorI4QuadNS_9allocatorIS1_EEE22__base_destruct_at_endB8ne180100EPS1_, symObjAddr: 0x669C, symBinAddr: 0x100008098, symSize: 0xA0 }
  - { offset: 0x13FA4, size: 0x8, addend: 0x0, symName: __ZNSt3__116allocator_traitsINS_9allocatorI4QuadEEE7destroyB8ne180100IS2_vEEvRS3_PT_, symObjAddr: 0x673C, symBinAddr: 0x100008138, symSize: 0x2C }
  - { offset: 0x13FE0, size: 0x8, addend: 0x0, symName: __ZNSt3__19allocatorI4QuadE7destroyB8ne180100EPS1_, symObjAddr: 0x677C, symBinAddr: 0x100008178, symSize: 0x30 }
  - { offset: 0x14012, size: 0x8, addend: 0x0, symName: __ZNSt3__19allocatorI4QuadE10deallocateB8ne180100EPS1_m, symObjAddr: 0x67AC, symBinAddr: 0x1000081A8, symSize: 0x70 }
  - { offset: 0x14052, size: 0x8, addend: 0x0, symName: __ZNSt3__117__compressed_pairIP4QuadNS_9allocatorIS1_EEE6secondB8ne180100Ev, symObjAddr: 0x681C, symBinAddr: 0x100008218, symSize: 0x24 }
  - { offset: 0x14076, size: 0x8, addend: 0x0, symName: __ZNSt3__122__compressed_pair_elemINS_9allocatorI4QuadEELi1ELb1EE5__getB8ne180100Ev, symObjAddr: 0x6840, symBinAddr: 0x10000823C, symSize: 0x14 }
  - { offset: 0x1409A, size: 0x8, addend: 0x0, symName: __ZNKSt3__16vectorI4QuadNS_9allocatorIS1_EEE9__end_capB8ne180100Ev, symObjAddr: 0x6854, symBinAddr: 0x100008250, symSize: 0x28 }
  - { offset: 0x140BE, size: 0x8, addend: 0x0, symName: __ZNKSt3__117__compressed_pairIP4QuadNS_9allocatorIS1_EEE5firstB8ne180100Ev, symObjAddr: 0x687C, symBinAddr: 0x100008278, symSize: 0x24 }
  - { offset: 0x140E2, size: 0x8, addend: 0x0, symName: __ZNKSt3__122__compressed_pair_elemIP4QuadLi0ELb0EE5__getB8ne180100Ev, symObjAddr: 0x68A0, symBinAddr: 0x10000829C, symSize: 0x14 }
  - { offset: 0x14106, size: 0x8, addend: 0x0, symName: __ZNSt3__16vectorI4QuadNS_9allocatorIS1_EEE9__end_capB8ne180100Ev, symObjAddr: 0x68B4, symBinAddr: 0x1000082B0, symSize: 0x28 }
  - { offset: 0x1412F, size: 0x8, addend: 0x0, symName: __ZNSt3__16vectorI4QuadNS_9allocatorIS1_EEE22__construct_one_at_endB8ne180100IJS1_EEEvDpOT_, symObjAddr: 0x68DC, symBinAddr: 0x1000082D8, symSize: 0x98 }
  - { offset: 0x1417D, size: 0x8, addend: 0x0, symName: __ZNSt3__16vectorI4QuadNS_9allocatorIS1_EEE21__push_back_slow_pathIS1_EEPS1_OT_, symObjAddr: 0x6974, symBinAddr: 0x100008370, symSize: 0xF0 }
  - { offset: 0x141D9, size: 0x8, addend: 0x0, symName: __ZNSt3__117__compressed_pairIP4QuadNS_9allocatorIS1_EEE5firstB8ne180100Ev, symObjAddr: 0x6A64, symBinAddr: 0x100008460, symSize: 0x24 }
  - { offset: 0x141FD, size: 0x8, addend: 0x0, symName: __ZNSt3__122__compressed_pair_elemIP4QuadLi0ELb0EE5__getB8ne180100Ev, symObjAddr: 0x6A88, symBinAddr: 0x100008484, symSize: 0x14 }
  - { offset: 0x1423A, size: 0x8, addend: 0x0, symName: __ZNSt3__16vectorI4QuadNS_9allocatorIS1_EEE21_ConstructTransactionC1B8ne180100ERS4_m, symObjAddr: 0x6A9C, symBinAddr: 0x100008498, symSize: 0x3C }
  - { offset: 0x14280, size: 0x8, addend: 0x0, symName: __ZNSt3__116allocator_traitsINS_9allocatorI4QuadEEE9constructB8ne180100IS2_JS2_EvEEvRS3_PT_DpOT0_, symObjAddr: 0x6AD8, symBinAddr: 0x1000084D4, symSize: 0x34 }
  - { offset: 0x142D6, size: 0x8, addend: 0x0, symName: __ZNSt3__16vectorI4QuadNS_9allocatorIS1_EEE21_ConstructTransactionD1B8ne180100Ev, symObjAddr: 0x6B0C, symBinAddr: 0x100008508, symSize: 0x2C }
  - { offset: 0x142FE, size: 0x8, addend: 0x0, symName: __ZNSt3__16vectorI4QuadNS_9allocatorIS1_EEE21_ConstructTransactionC2B8ne180100ERS4_m, symObjAddr: 0x6B38, symBinAddr: 0x100008534, symSize: 0x44 }
  - { offset: 0x14344, size: 0x8, addend: 0x0, symName: __ZNSt3__19allocatorI4QuadE9constructB8ne180100IS1_JS1_EEEvPT_DpOT0_, symObjAddr: 0x6B7C, symBinAddr: 0x100008578, symSize: 0x30 }
  - { offset: 0x14398, size: 0x8, addend: 0x0, symName: __ZN4QuadC1ERKS_, symObjAddr: 0x6BAC, symBinAddr: 0x1000085A8, symSize: 0x34 }
  - { offset: 0x143CC, size: 0x8, addend: 0x0, symName: __ZN4QuadC2ERKS_, symObjAddr: 0x6BE0, symBinAddr: 0x1000085DC, symSize: 0x58 }
  - { offset: 0x1440B, size: 0x8, addend: 0x0, symName: __ZN5ShapeC2ERKS_, symObjAddr: 0x6C38, symBinAddr: 0x100008634, symSize: 0x3C }
  - { offset: 0x1443E, size: 0x8, addend: 0x0, symName: __ZNSt3__16vectorI4QuadNS_9allocatorIS1_EEE21_ConstructTransactionD2B8ne180100Ev, symObjAddr: 0x6C74, symBinAddr: 0x100008670, symSize: 0x20 }
  - { offset: 0x14467, size: 0x8, addend: 0x0, symName: __ZNKSt3__16vectorI4QuadNS_9allocatorIS1_EEE11__recommendB8ne180100Em, symObjAddr: 0x6C94, symBinAddr: 0x100008690, symSize: 0xB4 }
  - { offset: 0x144BB, size: 0x8, addend: 0x0, symName: __ZNSt3__114__split_bufferI4QuadRNS_9allocatorIS1_EEEC1EmmS4_, symObjAddr: 0x6D48, symBinAddr: 0x100008744, symSize: 0x44 }
  - { offset: 0x14510, size: 0x8, addend: 0x0, symName: __ZNSt3__114__split_bufferI4QuadRNS_9allocatorIS1_EEED1Ev, symObjAddr: 0x6E9C, symBinAddr: 0x100008898, symSize: 0x2C }
  - { offset: 0x1453B, size: 0x8, addend: 0x0, symName: __ZNKSt3__16vectorI4QuadNS_9allocatorIS1_EEE8max_sizeEv, symObjAddr: 0x6EC8, symBinAddr: 0x1000088C4, symSize: 0x74 }
  - { offset: 0x14561, size: 0x8, addend: 0x0, symName: __ZNKSt3__16vectorI4QuadNS_9allocatorIS1_EEE20__throw_length_errorB8ne180100Ev, symObjAddr: 0x6F3C, symBinAddr: 0x100008938, symSize: 0x1C }
  - { offset: 0x1458F, size: 0x8, addend: 0x0, symName: __ZNSt3__116allocator_traitsINS_9allocatorI4QuadEEE8max_sizeB8ne180100IS3_vEEmRKS3_, symObjAddr: 0x6F84, symBinAddr: 0x100008980, symSize: 0x24 }
  - { offset: 0x145BC, size: 0x8, addend: 0x0, symName: __ZNKSt3__16vectorI4QuadNS_9allocatorIS1_EEE7__allocB8ne180100Ev, symObjAddr: 0x6FA8, symBinAddr: 0x1000089A4, symSize: 0x28 }
  - { offset: 0x145E0, size: 0x8, addend: 0x0, symName: __ZNKSt3__19allocatorI4QuadE8max_sizeB8ne180100Ev, symObjAddr: 0x6FD0, symBinAddr: 0x1000089CC, symSize: 0x14 }
  - { offset: 0x14604, size: 0x8, addend: 0x0, symName: __ZNKSt3__117__compressed_pairIP4QuadNS_9allocatorIS1_EEE6secondB8ne180100Ev, symObjAddr: 0x6FE4, symBinAddr: 0x1000089E0, symSize: 0x24 }
  - { offset: 0x14628, size: 0x8, addend: 0x0, symName: __ZNKSt3__122__compressed_pair_elemINS_9allocatorI4QuadEELi1ELb1EE5__getB8ne180100Ev, symObjAddr: 0x7008, symBinAddr: 0x100008A04, symSize: 0x14 }
  - { offset: 0x1464D, size: 0x8, addend: 0x0, symName: __ZNSt3__114__split_bufferI4QuadRNS_9allocatorIS1_EEEC2EmmS4_, symObjAddr: 0x7070, symBinAddr: 0x100008A6C, symSize: 0xD4 }
  - { offset: 0x146BF, size: 0x8, addend: 0x0, symName: __ZNSt3__117__compressed_pairIP4QuadRNS_9allocatorIS1_EEEC1B8ne180100IDnS5_EEOT_OT0_, symObjAddr: 0x7144, symBinAddr: 0x100008B40, symSize: 0x3C }
  - { offset: 0x14715, size: 0x8, addend: 0x0, symName: __ZNSt3__114__split_bufferI4QuadRNS_9allocatorIS1_EEE7__allocB8ne180100Ev, symObjAddr: 0x71C0, symBinAddr: 0x100008BBC, symSize: 0x28 }
  - { offset: 0x14739, size: 0x8, addend: 0x0, symName: __ZNSt3__114__split_bufferI4QuadRNS_9allocatorIS1_EEE9__end_capB8ne180100Ev, symObjAddr: 0x71E8, symBinAddr: 0x100008BE4, symSize: 0x28 }
  - { offset: 0x1475D, size: 0x8, addend: 0x0, symName: __ZNSt3__117__compressed_pairIP4QuadRNS_9allocatorIS1_EEEC2B8ne180100IDnS5_EEOT_OT0_, symObjAddr: 0x7210, symBinAddr: 0x100008C0C, symSize: 0x48 }
  - { offset: 0x147B3, size: 0x8, addend: 0x0, symName: __ZNSt3__122__compressed_pair_elemIRNS_9allocatorI4QuadEELi1ELb0EEC2B8ne180100IS4_vEEOT_, symObjAddr: 0x7258, symBinAddr: 0x100008C54, symSize: 0x20 }
  - { offset: 0x147F3, size: 0x8, addend: 0x0, symName: __ZNSt3__19allocatorI4QuadE8allocateB8ne180100Em, symObjAddr: 0x7278, symBinAddr: 0x100008C74, symSize: 0x84 }
  - { offset: 0x14825, size: 0x8, addend: 0x0, symName: __ZNSt3__117__compressed_pairIP4QuadRNS_9allocatorIS1_EEE6secondB8ne180100Ev, symObjAddr: 0x72FC, symBinAddr: 0x100008CF8, symSize: 0x28 }
  - { offset: 0x14849, size: 0x8, addend: 0x0, symName: __ZNSt3__122__compressed_pair_elemIRNS_9allocatorI4QuadEELi1ELb0EE5__getB8ne180100Ev, symObjAddr: 0x7324, symBinAddr: 0x100008D20, symSize: 0x18 }
  - { offset: 0x1486D, size: 0x8, addend: 0x0, symName: __ZNSt3__117__compressed_pairIP4QuadRNS_9allocatorIS1_EEE5firstB8ne180100Ev, symObjAddr: 0x733C, symBinAddr: 0x100008D38, symSize: 0x24 }
  - { offset: 0x14891, size: 0x8, addend: 0x0, symName: __ZNSt3__116reverse_iteratorIP4QuadEC1B8ne180100ES2_, symObjAddr: 0x7494, symBinAddr: 0x100008E90, symSize: 0x34 }
  - { offset: 0x148C7, size: 0x8, addend: 0x0, symName: __ZNKSt3__116reverse_iteratorIP4QuadE4baseB8ne180100Ev, symObjAddr: 0x74C8, symBinAddr: 0x100008EC4, symSize: 0x18 }
  - { offset: 0x148EB, size: 0x8, addend: 0x0, symName: __ZNKSt3__16vectorI4QuadNS_9allocatorIS1_EEE14__annotate_newB8ne180100Em, symObjAddr: 0x751C, symBinAddr: 0x100008F18, symSize: 0x14 }
  - { offset: 0x1491E, size: 0x8, addend: 0x0, symName: __ZNSt3__129_AllocatorDestroyRangeReverseINS_9allocatorI4QuadEENS_16reverse_iteratorIPS2_EEEC1B8ne180100ERS3_RS6_S9_, symObjAddr: 0x757C, symBinAddr: 0x100008F78, symSize: 0x44 }
  - { offset: 0x14973, size: 0x8, addend: 0x0, symName: __ZNSt3__116allocator_traitsINS_9allocatorI4QuadEEE9constructB8ne180100IS2_JRKS2_EvEEvRS3_PT_DpOT0_, symObjAddr: 0x7608, symBinAddr: 0x100009004, symSize: 0x34 }
  - { offset: 0x149C9, size: 0x8, addend: 0x0, symName: __ZNKSt3__116reverse_iteratorIP4QuadEdeB8ne180100Ev, symObjAddr: 0x7660, symBinAddr: 0x10000905C, symSize: 0x28 }
  - { offset: 0x149FB, size: 0x8, addend: 0x0, symName: __ZNSt3__116reverse_iteratorIP4QuadEppB8ne180100Ev, symObjAddr: 0x7688, symBinAddr: 0x100009084, symSize: 0x20 }
  - { offset: 0x14A1F, size: 0x8, addend: 0x0, symName: __ZNSt3__128__exception_guard_exceptionsINS_29_AllocatorDestroyRangeReverseINS_9allocatorI4QuadEENS_16reverse_iteratorIPS3_EEEEE10__completeB8ne180100Ev, symObjAddr: 0x76A8, symBinAddr: 0x1000090A4, symSize: 0x1C }
  - { offset: 0x14A43, size: 0x8, addend: 0x0, symName: __ZNSt3__128__exception_guard_exceptionsINS_29_AllocatorDestroyRangeReverseINS_9allocatorI4QuadEENS_16reverse_iteratorIPS3_EEEEED1B8ne180100Ev, symObjAddr: 0x76C4, symBinAddr: 0x1000090C0, symSize: 0x2C }
  - { offset: 0x14A6B, size: 0x8, addend: 0x0, symName: __ZNSt3__128__exception_guard_exceptionsINS_29_AllocatorDestroyRangeReverseINS_9allocatorI4QuadEENS_16reverse_iteratorIPS3_EEEEEC1B8ne180100ES8_, symObjAddr: 0x76F0, symBinAddr: 0x1000090EC, symSize: 0x34 }
  - { offset: 0x14AA2, size: 0x8, addend: 0x0, symName: __ZNSt3__128__exception_guard_exceptionsINS_29_AllocatorDestroyRangeReverseINS_9allocatorI4QuadEENS_16reverse_iteratorIPS3_EEEEEC2B8ne180100ES8_, symObjAddr: 0x7724, symBinAddr: 0x100009120, symSize: 0x30 }
  - { offset: 0x14AD9, size: 0x8, addend: 0x0, symName: __ZNSt3__129_AllocatorDestroyRangeReverseINS_9allocatorI4QuadEENS_16reverse_iteratorIPS2_EEEC2B8ne180100ERS3_RS6_S9_, symObjAddr: 0x7754, symBinAddr: 0x100009150, symSize: 0x38 }
  - { offset: 0x14B2E, size: 0x8, addend: 0x0, symName: __ZNSt3__19allocatorI4QuadE9constructB8ne180100IS1_JRKS1_EEEvPT_DpOT0_, symObjAddr: 0x778C, symBinAddr: 0x100009188, symSize: 0x30 }
  - { offset: 0x14B87, size: 0x8, addend: 0x0, symName: __ZNSt3__119__to_address_helperINS_16reverse_iteratorIP4QuadEEvE6__callB8ne180100ERKS4_, symObjAddr: 0x77BC, symBinAddr: 0x1000091B8, symSize: 0x4C }
  - { offset: 0x14BA9, size: 0x8, addend: 0x0, symName: __ZNKSt3__116reverse_iteratorIP4QuadEptB8ne180100Ev, symObjAddr: 0x7808, symBinAddr: 0x100009204, symSize: 0x24 }
  - { offset: 0x14BCD, size: 0x8, addend: 0x0, symName: __ZNSt3__128__exception_guard_exceptionsINS_29_AllocatorDestroyRangeReverseINS_9allocatorI4QuadEENS_16reverse_iteratorIPS3_EEEEED2B8ne180100Ev, symObjAddr: 0x782C, symBinAddr: 0x100009228, symSize: 0x48 }
  - { offset: 0x14BF5, size: 0x8, addend: 0x0, symName: __ZNKSt3__129_AllocatorDestroyRangeReverseINS_9allocatorI4QuadEENS_16reverse_iteratorIPS2_EEEclB8ne180100Ev, symObjAddr: 0x7874, symBinAddr: 0x100009270, symSize: 0xB4 }
  - { offset: 0x14C1A, size: 0x8, addend: 0x0, symName: __ZNSt3__116reverse_iteratorINS0_IP4QuadEEEC1B8ne180100ES3_, symObjAddr: 0x7998, symBinAddr: 0x100009394, symSize: 0x3C }
  - { offset: 0x14C50, size: 0x8, addend: 0x0, symName: __ZNSt3__116reverse_iteratorINS0_IP4QuadEEEppB8ne180100Ev, symObjAddr: 0x7A58, symBinAddr: 0x100009454, symSize: 0x30 }
  - { offset: 0x14C74, size: 0x8, addend: 0x0, symName: __ZNKSt3__116reverse_iteratorINS0_IP4QuadEEE4baseB8ne180100Ev, symObjAddr: 0x7A88, symBinAddr: 0x100009484, symSize: 0x24 }
  - { offset: 0x14C9D, size: 0x8, addend: 0x0, symName: __ZNSt3__119__to_address_helperINS_16reverse_iteratorINS1_IP4QuadEEEEvE6__callB8ne180100ERKS5_, symObjAddr: 0x7AAC, symBinAddr: 0x1000094A8, symSize: 0x4C }
  - { offset: 0x14CBF, size: 0x8, addend: 0x0, symName: __ZNKSt3__116reverse_iteratorINS0_IP4QuadEEEptB8ne180100Ev, symObjAddr: 0x7AF8, symBinAddr: 0x1000094F4, symSize: 0x24 }
  - { offset: 0x14CE3, size: 0x8, addend: 0x0, symName: __ZNKSt3__116reverse_iteratorINS0_IP4QuadEEEdeB8ne180100Ev, symObjAddr: 0x7B1C, symBinAddr: 0x100009518, symSize: 0x34 }
  - { offset: 0x14D15, size: 0x8, addend: 0x0, symName: __ZNSt3__116reverse_iteratorIP4QuadEmmB8ne180100Ev, symObjAddr: 0x7B50, symBinAddr: 0x10000954C, symSize: 0x20 }
  - { offset: 0x14D39, size: 0x8, addend: 0x0, symName: __ZNSt3__116reverse_iteratorINS0_IP4QuadEEEC2B8ne180100ES3_, symObjAddr: 0x7B70, symBinAddr: 0x10000956C, symSize: 0x2C }
  - { offset: 0x14D6F, size: 0x8, addend: 0x0, symName: __ZNSt3__116reverse_iteratorIP4QuadEC2B8ne180100ES2_, symObjAddr: 0x7B9C, symBinAddr: 0x100009598, symSize: 0x28 }
  - { offset: 0x14DA6, size: 0x8, addend: 0x0, symName: __ZNSt3__114__split_bufferI4QuadRNS_9allocatorIS1_EEED2Ev, symObjAddr: 0x7BC4, symBinAddr: 0x1000095C0, symSize: 0x80 }
  - { offset: 0x14DD0, size: 0x8, addend: 0x0, symName: __ZNSt3__114__split_bufferI4QuadRNS_9allocatorIS1_EEE5clearB8ne180100Ev, symObjAddr: 0x7C44, symBinAddr: 0x100009640, symSize: 0x28 }
  - { offset: 0x14DF4, size: 0x8, addend: 0x0, symName: __ZNKSt3__114__split_bufferI4QuadRNS_9allocatorIS1_EEE8capacityB8ne180100Ev, symObjAddr: 0x7C6C, symBinAddr: 0x100009668, symSize: 0x40 }
  - { offset: 0x14E18, size: 0x8, addend: 0x0, symName: __ZNSt3__114__split_bufferI4QuadRNS_9allocatorIS1_EEE17__destruct_at_endB8ne180100EPS1_, symObjAddr: 0x7CAC, symBinAddr: 0x1000096A8, symSize: 0x2C }
  - { offset: 0x14E4B, size: 0x8, addend: 0x0, symName: __ZNSt3__114__split_bufferI4QuadRNS_9allocatorIS1_EEE17__destruct_at_endB8ne180100EPS1_NS_17integral_constantIbLb0EEE, symObjAddr: 0x7CD8, symBinAddr: 0x1000096D4, symSize: 0x94 }
  - { offset: 0x14E89, size: 0x8, addend: 0x0, symName: __ZNKSt3__114__split_bufferI4QuadRNS_9allocatorIS1_EEE9__end_capB8ne180100Ev, symObjAddr: 0x7D6C, symBinAddr: 0x100009768, symSize: 0x28 }
  - { offset: 0x14EAD, size: 0x8, addend: 0x0, symName: __ZNKSt3__117__compressed_pairIP4QuadRNS_9allocatorIS1_EEE5firstB8ne180100Ev, symObjAddr: 0x7D94, symBinAddr: 0x100009790, symSize: 0x24 }
  - { offset: 0x14ED6, size: 0x8, addend: 0x0, symName: __ZNSt3__16vectorIP5ShapeNS_9allocatorIS2_EEE22__construct_one_at_endB8ne180100IJS2_EEEvDpOT_, symObjAddr: 0x7DB8, symBinAddr: 0x1000097B4, symSize: 0x98 }
  - { offset: 0x14F24, size: 0x8, addend: 0x0, symName: __ZNSt3__16vectorIP5ShapeNS_9allocatorIS2_EEE21__push_back_slow_pathIS2_EEPS2_OT_, symObjAddr: 0x7E50, symBinAddr: 0x10000984C, symSize: 0xF0 }
  - { offset: 0x14F80, size: 0x8, addend: 0x0, symName: __ZNSt3__116allocator_traitsINS_9allocatorIP5ShapeEEE9constructB8ne180100IS3_JS3_EvEEvRS4_PT_DpOT0_, symObjAddr: 0x7F40, symBinAddr: 0x10000993C, symSize: 0x34 }
  - { offset: 0x14FD6, size: 0x8, addend: 0x0, symName: __ZNSt3__19allocatorIP5ShapeE9constructB8ne180100IS2_JS2_EEEvPT_DpOT0_, symObjAddr: 0x7F74, symBinAddr: 0x100009970, symSize: 0x28 }
  - { offset: 0x1502B, size: 0x8, addend: 0x0, symName: __ZNKSt3__16vectorIP5ShapeNS_9allocatorIS2_EEE11__recommendB8ne180100Em, symObjAddr: 0x7F9C, symBinAddr: 0x100009998, symSize: 0xB4 }
  - { offset: 0x1507F, size: 0x8, addend: 0x0, symName: __ZNSt3__114__split_bufferIP5ShapeRNS_9allocatorIS2_EEEC1EmmS5_, symObjAddr: 0x8050, symBinAddr: 0x100009A4C, symSize: 0x44 }
  - { offset: 0x150D4, size: 0x8, addend: 0x0, symName: __ZNSt3__114__split_bufferIP5ShapeRNS_9allocatorIS2_EEED1Ev, symObjAddr: 0x81A4, symBinAddr: 0x100009BA0, symSize: 0x2C }
  - { offset: 0x150FF, size: 0x8, addend: 0x0, symName: __ZNSt3__114__split_bufferIP5ShapeRNS_9allocatorIS2_EEEC2EmmS5_, symObjAddr: 0x81D0, symBinAddr: 0x100009BCC, symSize: 0xD4 }
  - { offset: 0x15171, size: 0x8, addend: 0x0, symName: __ZNSt3__117__compressed_pairIPP5ShapeRNS_9allocatorIS2_EEEC1B8ne180100IDnS6_EEOT_OT0_, symObjAddr: 0x82A4, symBinAddr: 0x100009CA0, symSize: 0x3C }
  - { offset: 0x151C7, size: 0x8, addend: 0x0, symName: __ZNSt3__114__split_bufferIP5ShapeRNS_9allocatorIS2_EEE7__allocB8ne180100Ev, symObjAddr: 0x82E0, symBinAddr: 0x100009CDC, symSize: 0x28 }
  - { offset: 0x151EB, size: 0x8, addend: 0x0, symName: __ZNSt3__114__split_bufferIP5ShapeRNS_9allocatorIS2_EEE9__end_capB8ne180100Ev, symObjAddr: 0x8308, symBinAddr: 0x100009D04, symSize: 0x28 }
  - { offset: 0x1520F, size: 0x8, addend: 0x0, symName: __ZNSt3__117__compressed_pairIPP5ShapeRNS_9allocatorIS2_EEEC2B8ne180100IDnS6_EEOT_OT0_, symObjAddr: 0x8330, symBinAddr: 0x100009D2C, symSize: 0x48 }
  - { offset: 0x15265, size: 0x8, addend: 0x0, symName: __ZNSt3__122__compressed_pair_elemIRNS_9allocatorIP5ShapeEELi1ELb0EEC2B8ne180100IS5_vEEOT_, symObjAddr: 0x8378, symBinAddr: 0x100009D74, symSize: 0x20 }
  - { offset: 0x152A5, size: 0x8, addend: 0x0, symName: __ZNSt3__117__compressed_pairIPP5ShapeRNS_9allocatorIS2_EEE6secondB8ne180100Ev, symObjAddr: 0x8398, symBinAddr: 0x100009D94, symSize: 0x28 }
  - { offset: 0x152C9, size: 0x8, addend: 0x0, symName: __ZNSt3__122__compressed_pair_elemIRNS_9allocatorIP5ShapeEELi1ELb0EE5__getB8ne180100Ev, symObjAddr: 0x83C0, symBinAddr: 0x100009DBC, symSize: 0x18 }
  - { offset: 0x152ED, size: 0x8, addend: 0x0, symName: __ZNSt3__117__compressed_pairIPP5ShapeRNS_9allocatorIS2_EEE5firstB8ne180100Ev, symObjAddr: 0x83D8, symBinAddr: 0x100009DD4, symSize: 0x24 }
  - { offset: 0x15334, size: 0x8, addend: 0x0, symName: __ZNKSt3__111__move_loopINS_17_ClassicAlgPolicyEEclB8ne180100INS_16reverse_iteratorIPP5ShapeEES8_S8_EENS_4pairIT_T1_EESA_T0_SB_, symObjAddr: 0x8834, symBinAddr: 0x10000A230, symSize: 0xA0 }
  - { offset: 0x153A2, size: 0x8, addend: 0x0, symName: __ZNSt3__18_IterOpsINS_17_ClassicAlgPolicyEE11__iter_moveB8ne180100IRNS_16reverse_iteratorIPP5ShapeEELi0EEEDTclsr3stdE4movedeclsr3stdE7declvalIRT_EEEEOSA_, symObjAddr: 0x8A34, symBinAddr: 0x10000A430, symSize: 0x28 }
  - { offset: 0x153D4, size: 0x8, addend: 0x0, symName: __ZNSt3__18_IterOpsINS_17_ClassicAlgPolicyEE25__validate_iter_referenceB8ne180100IRNS_16reverse_iteratorIPP5ShapeEEEEvv, symObjAddr: 0x8A5C, symBinAddr: 0x10000A458, symSize: 0x4 }
  - { offset: 0x153F2, size: 0x8, addend: 0x0, symName: __ZNSt3__118__unwrap_iter_implINS_16reverse_iteratorIPP5ShapeEELb0EE8__unwrapB8ne180100ES5_, symObjAddr: 0x8A60, symBinAddr: 0x10000A45C, symSize: 0x24 }
  - { offset: 0x15414, size: 0x8, addend: 0x0, symName: __ZNSt3__14pairINS_16reverse_iteratorIPP5ShapeEES5_EC1B8ne180100ERKS5_S8_, symObjAddr: 0x8A84, symBinAddr: 0x10000A480, symSize: 0x3C }
  - { offset: 0x15458, size: 0x8, addend: 0x0, symName: __ZNSt3__14pairINS_16reverse_iteratorIPP5ShapeEES5_EC2B8ne180100ERKS5_S8_, symObjAddr: 0x8AC0, symBinAddr: 0x10000A4BC, symSize: 0x34 }
  - { offset: 0x1549D, size: 0x8, addend: 0x0, symName: __ZNSt3__118__unwrap_iter_implINS_16reverse_iteratorIPP5ShapeEELb0EE8__rewrapB8ne180100ES5_S5_, symObjAddr: 0x8AF4, symBinAddr: 0x10000A4F0, symSize: 0x2C }
  - { offset: 0x154CA, size: 0x8, addend: 0x0, symName: __ZNSt3__114__split_bufferIP5ShapeRNS_9allocatorIS2_EEED2Ev, symObjAddr: 0x8B20, symBinAddr: 0x10000A51C, symSize: 0x80 }
  - { offset: 0x154F4, size: 0x8, addend: 0x0, symName: __ZNSt3__114__split_bufferIP5ShapeRNS_9allocatorIS2_EEE5clearB8ne180100Ev, symObjAddr: 0x8BA0, symBinAddr: 0x10000A59C, symSize: 0x28 }
  - { offset: 0x15518, size: 0x8, addend: 0x0, symName: __ZNKSt3__114__split_bufferIP5ShapeRNS_9allocatorIS2_EEE8capacityB8ne180100Ev, symObjAddr: 0x8BC8, symBinAddr: 0x10000A5C4, symSize: 0x40 }
  - { offset: 0x1553C, size: 0x8, addend: 0x0, symName: __ZNSt3__114__split_bufferIP5ShapeRNS_9allocatorIS2_EEE17__destruct_at_endB8ne180100EPS2_, symObjAddr: 0x8C08, symBinAddr: 0x10000A604, symSize: 0x2C }
  - { offset: 0x1556F, size: 0x8, addend: 0x0, symName: __ZNSt3__114__split_bufferIP5ShapeRNS_9allocatorIS2_EEE17__destruct_at_endB8ne180100EPS2_NS_17integral_constantIbLb0EEE, symObjAddr: 0x8C34, symBinAddr: 0x10000A630, symSize: 0x94 }
  - { offset: 0x155AD, size: 0x8, addend: 0x0, symName: __ZNKSt3__114__split_bufferIP5ShapeRNS_9allocatorIS2_EEE9__end_capB8ne180100Ev, symObjAddr: 0x8CC8, symBinAddr: 0x10000A6C4, symSize: 0x28 }
  - { offset: 0x155D1, size: 0x8, addend: 0x0, symName: __ZNKSt3__117__compressed_pairIPP5ShapeRNS_9allocatorIS2_EEE5firstB8ne180100Ev, symObjAddr: 0x8CF0, symBinAddr: 0x10000A6EC, symSize: 0x24 }
  - { offset: 0x15613, size: 0x8, addend: 0x0, symName: __ZNKSt3__113basic_ostreamIcNS_11char_traitsIcEEE6sentrycvbB8ne180100Ev, symObjAddr: 0x8F50, symBinAddr: 0x10000A904, symSize: 0x1C }
  - { offset: 0x15637, size: 0x8, addend: 0x0, symName: __ZNSt3__119ostreambuf_iteratorIcNS_11char_traitsIcEEEC1B8ne180100ERNS_13basic_ostreamIcS2_EE, symObjAddr: 0x91B4, symBinAddr: 0x10000AB68, symSize: 0x34 }
  - { offset: 0x1566E, size: 0x8, addend: 0x0, symName: __ZNKSt3__18ios_base5flagsB8ne180100Ev, symObjAddr: 0x91E8, symBinAddr: 0x10000AB9C, symSize: 0x18 }
  - { offset: 0x15695, size: 0x8, addend: 0x0, symName: __ZNKSt3__19basic_iosIcNS_11char_traitsIcEEE4fillB8ne180100Ev, symObjAddr: 0x9200, symBinAddr: 0x10000ABB4, symSize: 0x64 }
  - { offset: 0x156BB, size: 0x8, addend: 0x0, symName: __ZNKSt3__119ostreambuf_iteratorIcNS_11char_traitsIcEEE6failedB8ne180100Ev, symObjAddr: 0x9264, symBinAddr: 0x10000AC18, symSize: 0x24 }
  - { offset: 0x156DF, size: 0x8, addend: 0x0, symName: __ZNSt3__19basic_iosIcNS_11char_traitsIcEEE8setstateB8ne180100Ej, symObjAddr: 0x9288, symBinAddr: 0x10000AC3C, symSize: 0x2C }
  - { offset: 0x15713, size: 0x8, addend: 0x0, symName: __ZNKSt3__18ios_base5widthB8ne180100Ev, symObjAddr: 0x92B4, symBinAddr: 0x10000AC68, symSize: 0x18 }
  - { offset: 0x15739, size: 0x8, addend: 0x0, symName: __ZNSt3__115basic_streambufIcNS_11char_traitsIcEEE5sputnB8ne180100EPKcl, symObjAddr: 0x92CC, symBinAddr: 0x10000AC80, symSize: 0x3C }
  - { offset: 0x15779, size: 0x8, addend: 0x0, symName: __ZNSt3__112basic_stringIcNS_11char_traitsIcEENS_9allocatorIcEEEC1B8ne180100Emc, symObjAddr: 0x9308, symBinAddr: 0x10000ACBC, symSize: 0x3C }
  - { offset: 0x157BF, size: 0x8, addend: 0x0, symName: __ZNKSt3__112basic_stringIcNS_11char_traitsIcEENS_9allocatorIcEEE4dataB8ne180100Ev, symObjAddr: 0x9344, symBinAddr: 0x10000ACF8, symSize: 0x28 }
  - { offset: 0x157E4, size: 0x8, addend: 0x0, symName: __ZNSt3__18ios_base5widthB8ne180100El, symObjAddr: 0x936C, symBinAddr: 0x10000AD20, symSize: 0x2C }
  - { offset: 0x15828, size: 0x8, addend: 0x0, symName: __ZNSt3__112basic_stringIcNS_11char_traitsIcEENS_9allocatorIcEEEC2B8ne180100Emc, symObjAddr: 0x9398, symBinAddr: 0x10000AD4C, symSize: 0x4C }
  - { offset: 0x1586E, size: 0x8, addend: 0x0, symName: __ZNKSt3__112basic_stringIcNS_11char_traitsIcEENS_9allocatorIcEEE13__get_pointerB8ne180100Ev, symObjAddr: 0x94F0, symBinAddr: 0x10000ADAC, symSize: 0x54 }
  - { offset: 0x15892, size: 0x8, addend: 0x0, symName: __ZNKSt3__112basic_stringIcNS_11char_traitsIcEENS_9allocatorIcEEE9__is_longB8ne180100Ev, symObjAddr: 0x9544, symBinAddr: 0x10000AE00, symSize: 0x94 }
  - { offset: 0x158B6, size: 0x8, addend: 0x0, symName: __ZNKSt3__112basic_stringIcNS_11char_traitsIcEENS_9allocatorIcEEE18__get_long_pointerB8ne180100Ev, symObjAddr: 0x95D8, symBinAddr: 0x10000AE94, symSize: 0x28 }
  - { offset: 0x158DA, size: 0x8, addend: 0x0, symName: __ZNKSt3__112basic_stringIcNS_11char_traitsIcEENS_9allocatorIcEEE19__get_short_pointerB8ne180100Ev, symObjAddr: 0x9600, symBinAddr: 0x10000AEBC, symSize: 0x28 }
  - { offset: 0x158FE, size: 0x8, addend: 0x0, symName: __ZNKSt3__117__compressed_pairINS_12basic_stringIcNS_11char_traitsIcEENS_9allocatorIcEEE5__repES5_E5firstB8ne180100Ev, symObjAddr: 0x9628, symBinAddr: 0x10000AEE4, symSize: 0x24 }
  - { offset: 0x15922, size: 0x8, addend: 0x0, symName: __ZNKSt3__122__compressed_pair_elemINS_12basic_stringIcNS_11char_traitsIcEENS_9allocatorIcEEE5__repELi0ELb0EE5__getB8ne180100Ev, symObjAddr: 0x964C, symBinAddr: 0x10000AF08, symSize: 0x14 }
  - { offset: 0x15947, size: 0x8, addend: 0x0, symName: __ZNSt3__114pointer_traitsIPKcE10pointer_toB8ne180100ERS1_, symObjAddr: 0x9660, symBinAddr: 0x10000AF1C, symSize: 0x14 }
  - { offset: 0x15969, size: 0x8, addend: 0x0, symName: __ZNSt3__119ostreambuf_iteratorIcNS_11char_traitsIcEEEC2B8ne180100ERNS_13basic_ostreamIcS2_EE, symObjAddr: 0x9674, symBinAddr: 0x10000AF30, symSize: 0x68 }
  - { offset: 0x159A0, size: 0x8, addend: 0x0, symName: __ZNKSt3__19basic_iosIcNS_11char_traitsIcEEE5rdbufB8ne180100Ev, symObjAddr: 0x96DC, symBinAddr: 0x10000AF98, symSize: 0x24 }
  - { offset: 0x159C6, size: 0x8, addend: 0x0, symName: __ZNKSt3__18ios_base5rdbufB8ne180100Ev, symObjAddr: 0x9700, symBinAddr: 0x10000AFBC, symSize: 0x18 }
  - { offset: 0x159EB, size: 0x8, addend: 0x0, symName: __ZNSt3__111char_traitsIcE11eq_int_typeB8ne180100Eii, symObjAddr: 0x9718, symBinAddr: 0x10000AFD4, symSize: 0x28 }
  - { offset: 0x15A1E, size: 0x8, addend: 0x0, symName: __ZNSt3__111char_traitsIcE3eofB8ne180100Ev, symObjAddr: 0x9740, symBinAddr: 0x10000AFFC, symSize: 0x8 }
  - { offset: 0x15A32, size: 0x8, addend: 0x0, symName: __ZNKSt3__19basic_iosIcNS_11char_traitsIcEEE5widenB8ne180100Ec, symObjAddr: 0x9748, symBinAddr: 0x10000B004, symSize: 0x8C }
  - { offset: 0x15A9E, size: 0x8, addend: 0x0, symName: __ZNKSt3__15ctypeIcE5widenB8ne180100Ec, symObjAddr: 0x9800, symBinAddr: 0x10000B0BC, symSize: 0x38 }
  - { offset: 0x15AD2, size: 0x8, addend: 0x0, symName: __ZNSt3__18ios_base8setstateB8ne180100Ej, symObjAddr: 0x9838, symBinAddr: 0x10000B0F4, symSize: 0x34 }
...
