---
triple:          'arm64-apple-darwin'
binary-path:     mon_app
relocations:
  - { offset: 0x34D0, size: 0x8, addend: 0x0, symName: __ZNSt3__124__put_character_sequenceB8ne180100IcNS_11char_traitsIcEEEERNS_13basic_ostreamIT_T0_EES7_PKS4_m, symObjAddr: 0x8EC, symBinAddr: 0x100002E34, symSize: 0x1F4 }
  - { offset: 0x4340, size: 0x8, addend: 0x0, symName: __ZNSt3__1lsB8ne180100INS_11char_traitsIcEEEERNS_13basic_ostreamIcT_EES6_PKc, symObjAddr: 0x534, symBinAddr: 0x100002A7C, symSize: 0x48 }
  - { offset: 0x4386, size: 0x8, addend: 0x0, symName: __ZNSt3__116__pad_and_outputB8ne180100IcNS_11char_traitsIcEEEENS_19ostreambuf_iteratorIT_T0_EES6_PKS4_S8_S8_RNS_8ios_baseES4_, symObjAddr: 0xB44, symBinAddr: 0x10000308C, symSize: 0x248 }
  - { offset: 0x4455, size: 0x8, addend: 0x0, symName: __ZNSt3__112__to_addressB8ne180100IKcEEPT_S3_, symObjAddr: 0x10C4, symBinAddr: 0x10000360C, symSize: 0x14 }
  - { offset: 0x448A, size: 0x8, addend: 0x0, symName: __ZNSt3__130__libcpp_is_constant_evaluatedB8ne180100Ev, symObjAddr: 0x1210, symBinAddr: 0x100003758, symSize: 0xC }
  - { offset: 0x44DA, size: 0x8, addend: 0x0, symName: __ZNSt3__19use_facetB8ne180100INS_5ctypeIcEEEERKT_RKNS_6localeE, symObjAddr: 0x13C8, symBinAddr: 0x100003910, symSize: 0x2C }
  - { offset: 0x49A7, size: 0x8, addend: 0x0, symName: __ZNSt3__118__constexpr_strlenB8ne180100EPKc, symObjAddr: 0x1460, symBinAddr: 0x1000039A8, symSize: 0x24 }
  - { offset: 0x58A8, size: 0x8, addend: 0x0, symName: _main, symObjAddr: 0x0, symBinAddr: 0x100002548, symSize: 0x3B0 }
  - { offset: 0x5AC8, size: 0x8, addend: 0x0, symName: __ZN8Vector3fC1Efff, symObjAddr: 0x3B0, symBinAddr: 0x1000028F8, symSize: 0x44 }
  - { offset: 0x5B1A, size: 0x8, addend: 0x0, symName: __ZN8Vector3fC1Ev, symObjAddr: 0x3F4, symBinAddr: 0x10000293C, symSize: 0x2C }
  - { offset: 0x5B91, size: 0x8, addend: 0x0, symName: __ZN6CameraC1E8Vector3fS0_, symObjAddr: 0x420, symBinAddr: 0x100002968, symSize: 0x5C }
  - { offset: 0x5C48, size: 0x8, addend: 0x0, symName: __ZN8MaterialC1Effff, symObjAddr: 0x47C, symBinAddr: 0x1000029C4, symSize: 0x4C }
  - { offset: 0x5E18, size: 0x8, addend: 0x0, symName: __ZN6SphereC1E8Vector3ff8Material, symObjAddr: 0x4C8, symBinAddr: 0x100002A10, symSize: 0x6C }
  - { offset: 0x5E6A, size: 0x8, addend: 0x0, symName: __ZNK8Vector3fmiES_, symObjAddr: 0x57C, symBinAddr: 0x100002AC4, symSize: 0x78 }
  - { offset: 0x5EAA, size: 0x8, addend: 0x0, symName: __ZN5Ray3fC1E8Vector3fS0_, symObjAddr: 0x5F4, symBinAddr: 0x100002B3C, symSize: 0x5C }
  - { offset: 0x5EEE, size: 0x8, addend: 0x0, symName: __ZN8Vector3fC2Efff, symObjAddr: 0x650, symBinAddr: 0x100002B98, symSize: 0x38 }
  - { offset: 0x5F40, size: 0x8, addend: 0x0, symName: __ZN8Vector3fC2Ev, symObjAddr: 0x688, symBinAddr: 0x100002BD0, symSize: 0x24 }
  - { offset: 0x5F68, size: 0x8, addend: 0x0, symName: __ZN6CameraC2E8Vector3fS0_, symObjAddr: 0x6AC, symBinAddr: 0x100002BF4, symSize: 0x70 }
  - { offset: 0x5FAC, size: 0x8, addend: 0x0, symName: __ZN8MaterialC2Effff, symObjAddr: 0x71C, symBinAddr: 0x100002C64, symSize: 0x44 }
  - { offset: 0x600C, size: 0x8, addend: 0x0, symName: __ZN6SphereC2E8Vector3ff8Material, symObjAddr: 0x760, symBinAddr: 0x100002CA8, symSize: 0x88 }
  - { offset: 0x605E, size: 0x8, addend: 0x0, symName: __ZN5ShapeC2Ev, symObjAddr: 0x7E8, symBinAddr: 0x100002D30, symSize: 0x40 }
  - { offset: 0x6088, size: 0x8, addend: 0x0, symName: __ZN8MaterialC1Ev, symObjAddr: 0x828, symBinAddr: 0x100002D70, symSize: 0x2C }
  - { offset: 0x60B0, size: 0x8, addend: 0x0, symName: __ZN8MaterialC2Ev, symObjAddr: 0x854, symBinAddr: 0x100002D9C, symSize: 0x28 }
  - { offset: 0x60D8, size: 0x8, addend: 0x0, symName: __ZN5Ray3fC2E8Vector3fS0_, symObjAddr: 0x87C, symBinAddr: 0x100002DC4, symSize: 0x70 }
  - { offset: 0x611C, size: 0x8, addend: 0x0, symName: __ZNSt3__111char_traitsIcE6lengthB8ne180100EPKc, symObjAddr: 0xAE0, symBinAddr: 0x100003028, symSize: 0x48 }
  - { offset: 0x615C, size: 0x8, addend: 0x0, symName: __ZNKSt3__113basic_ostreamIcNS_11char_traitsIcEEE6sentrycvbB8ne180100Ev, symObjAddr: 0xB28, symBinAddr: 0x100003070, symSize: 0x1C }
  - { offset: 0x6180, size: 0x8, addend: 0x0, symName: __ZNSt3__119ostreambuf_iteratorIcNS_11char_traitsIcEEEC1B8ne180100ERNS_13basic_ostreamIcS2_EE, symObjAddr: 0xD8C, symBinAddr: 0x1000032D4, symSize: 0x34 }
  - { offset: 0x61B6, size: 0x8, addend: 0x0, symName: __ZNKSt3__18ios_base5flagsB8ne180100Ev, symObjAddr: 0xDC0, symBinAddr: 0x100003308, symSize: 0x18 }
  - { offset: 0x61DC, size: 0x8, addend: 0x0, symName: __ZNKSt3__19basic_iosIcNS_11char_traitsIcEEE4fillB8ne180100Ev, symObjAddr: 0xDD8, symBinAddr: 0x100003320, symSize: 0x64 }
  - { offset: 0x6202, size: 0x8, addend: 0x0, symName: __ZNKSt3__119ostreambuf_iteratorIcNS_11char_traitsIcEEE6failedB8ne180100Ev, symObjAddr: 0xE3C, symBinAddr: 0x100003384, symSize: 0x24 }
  - { offset: 0x6226, size: 0x8, addend: 0x0, symName: __ZNSt3__19basic_iosIcNS_11char_traitsIcEEE8setstateB8ne180100Ej, symObjAddr: 0xE60, symBinAddr: 0x1000033A8, symSize: 0x2C }
  - { offset: 0x6259, size: 0x8, addend: 0x0, symName: __ZNKSt3__18ios_base5widthB8ne180100Ev, symObjAddr: 0xE9C, symBinAddr: 0x1000033E4, symSize: 0x18 }
  - { offset: 0x627F, size: 0x8, addend: 0x0, symName: __ZNSt3__115basic_streambufIcNS_11char_traitsIcEEE5sputnB8ne180100EPKcl, symObjAddr: 0xEB4, symBinAddr: 0x1000033FC, symSize: 0x3C }
  - { offset: 0x62BF, size: 0x8, addend: 0x0, symName: __ZNSt3__112basic_stringIcNS_11char_traitsIcEENS_9allocatorIcEEEC1B8ne180100Emc, symObjAddr: 0xEF0, symBinAddr: 0x100003438, symSize: 0x3C }
  - { offset: 0x6305, size: 0x8, addend: 0x0, symName: __ZNKSt3__112basic_stringIcNS_11char_traitsIcEENS_9allocatorIcEEE4dataB8ne180100Ev, symObjAddr: 0xF2C, symBinAddr: 0x100003474, symSize: 0x28 }
  - { offset: 0x6329, size: 0x8, addend: 0x0, symName: __ZNSt3__18ios_base5widthB8ne180100El, symObjAddr: 0xF54, symBinAddr: 0x10000349C, symSize: 0x2C }
  - { offset: 0x636D, size: 0x8, addend: 0x0, symName: __ZNSt3__112basic_stringIcNS_11char_traitsIcEENS_9allocatorIcEEEC2B8ne180100Emc, symObjAddr: 0xF80, symBinAddr: 0x1000034C8, symSize: 0x4C }
  - { offset: 0x63B8, size: 0x8, addend: 0x0, symName: __ZNSt3__117__compressed_pairINS_12basic_stringIcNS_11char_traitsIcEENS_9allocatorIcEEE5__repES5_EC1B8ne180100INS_18__default_init_tagESA_EEOT_OT0_, symObjAddr: 0xFCC, symBinAddr: 0x100003514, symSize: 0x3C }
  - { offset: 0x640E, size: 0x8, addend: 0x0, symName: __ZNSt3__117__compressed_pairINS_12basic_stringIcNS_11char_traitsIcEENS_9allocatorIcEEE5__repES5_EC2B8ne180100INS_18__default_init_tagESA_EEOT_OT0_, symObjAddr: 0x1008, symBinAddr: 0x100003550, symSize: 0x3C }
  - { offset: 0x6464, size: 0x8, addend: 0x0, symName: __ZNSt3__122__compressed_pair_elemINS_12basic_stringIcNS_11char_traitsIcEENS_9allocatorIcEEE5__repELi0ELb0EEC2B8ne180100ENS_18__default_init_tagE, symObjAddr: 0x1044, symBinAddr: 0x10000358C, symSize: 0x14 }
  - { offset: 0x6496, size: 0x8, addend: 0x0, symName: __ZNSt3__122__compressed_pair_elemINS_9allocatorIcEELi1ELb1EEC2B8ne180100ENS_18__default_init_tagE, symObjAddr: 0x1058, symBinAddr: 0x1000035A0, symSize: 0x2C }
  - { offset: 0x64C8, size: 0x8, addend: 0x0, symName: __ZNSt3__19allocatorIcEC2B8ne180100Ev, symObjAddr: 0x1084, symBinAddr: 0x1000035CC, symSize: 0x2C }
  - { offset: 0x64F0, size: 0x8, addend: 0x0, symName: __ZNSt3__116__non_trivial_ifILb1ENS_9allocatorIcEEEC2B8ne180100Ev, symObjAddr: 0x10B0, symBinAddr: 0x1000035F8, symSize: 0x14 }
  - { offset: 0x6518, size: 0x8, addend: 0x0, symName: __ZNKSt3__112basic_stringIcNS_11char_traitsIcEENS_9allocatorIcEEE13__get_pointerB8ne180100Ev, symObjAddr: 0x10D8, symBinAddr: 0x100003620, symSize: 0x54 }
  - { offset: 0x653C, size: 0x8, addend: 0x0, symName: __ZNKSt3__112basic_stringIcNS_11char_traitsIcEENS_9allocatorIcEEE9__is_longB8ne180100Ev, symObjAddr: 0x112C, symBinAddr: 0x100003674, symSize: 0x94 }
  - { offset: 0x6560, size: 0x8, addend: 0x0, symName: __ZNKSt3__112basic_stringIcNS_11char_traitsIcEENS_9allocatorIcEEE18__get_long_pointerB8ne180100Ev, symObjAddr: 0x11C0, symBinAddr: 0x100003708, symSize: 0x28 }
  - { offset: 0x6584, size: 0x8, addend: 0x0, symName: __ZNKSt3__112basic_stringIcNS_11char_traitsIcEENS_9allocatorIcEEE19__get_short_pointerB8ne180100Ev, symObjAddr: 0x11E8, symBinAddr: 0x100003730, symSize: 0x28 }
  - { offset: 0x65A8, size: 0x8, addend: 0x0, symName: __ZNKSt3__117__compressed_pairINS_12basic_stringIcNS_11char_traitsIcEENS_9allocatorIcEEE5__repES5_E5firstB8ne180100Ev, symObjAddr: 0x121C, symBinAddr: 0x100003764, symSize: 0x24 }
  - { offset: 0x65CC, size: 0x8, addend: 0x0, symName: __ZNKSt3__122__compressed_pair_elemINS_12basic_stringIcNS_11char_traitsIcEENS_9allocatorIcEEE5__repELi0ELb0EE5__getB8ne180100Ev, symObjAddr: 0x1240, symBinAddr: 0x100003788, symSize: 0x14 }
  - { offset: 0x65F0, size: 0x8, addend: 0x0, symName: __ZNSt3__114pointer_traitsIPKcE10pointer_toB8ne180100ERS1_, symObjAddr: 0x1254, symBinAddr: 0x10000379C, symSize: 0x14 }
  - { offset: 0x6612, size: 0x8, addend: 0x0, symName: __ZNSt3__119ostreambuf_iteratorIcNS_11char_traitsIcEEEC2B8ne180100ERNS_13basic_ostreamIcS2_EE, symObjAddr: 0x1268, symBinAddr: 0x1000037B0, symSize: 0x68 }
  - { offset: 0x6648, size: 0x8, addend: 0x0, symName: __ZNKSt3__19basic_iosIcNS_11char_traitsIcEEE5rdbufB8ne180100Ev, symObjAddr: 0x12D0, symBinAddr: 0x100003818, symSize: 0x24 }
  - { offset: 0x666E, size: 0x8, addend: 0x0, symName: __ZNKSt3__18ios_base5rdbufB8ne180100Ev, symObjAddr: 0x12F4, symBinAddr: 0x10000383C, symSize: 0x18 }
  - { offset: 0x6692, size: 0x8, addend: 0x0, symName: __ZNSt3__111char_traitsIcE11eq_int_typeB8ne180100Eii, symObjAddr: 0x130C, symBinAddr: 0x100003854, symSize: 0x28 }
  - { offset: 0x66C4, size: 0x8, addend: 0x0, symName: __ZNSt3__111char_traitsIcE3eofB8ne180100Ev, symObjAddr: 0x1334, symBinAddr: 0x10000387C, symSize: 0x8 }
  - { offset: 0x66D7, size: 0x8, addend: 0x0, symName: __ZNKSt3__19basic_iosIcNS_11char_traitsIcEEE5widenB8ne180100Ec, symObjAddr: 0x133C, symBinAddr: 0x100003884, symSize: 0x8C }
  - { offset: 0x674E, size: 0x8, addend: 0x0, symName: __ZNKSt3__15ctypeIcE5widenB8ne180100Ec, symObjAddr: 0x13F4, symBinAddr: 0x10000393C, symSize: 0x38 }
  - { offset: 0x6781, size: 0x8, addend: 0x0, symName: __ZNSt3__18ios_base8setstateB8ne180100Ej, symObjAddr: 0x142C, symBinAddr: 0x100003974, symSize: 0x34 }
  - { offset: 0x99D9, size: 0x8, addend: 0x0, symName: __ZN4Quad6is_hitE5Ray3f, symObjAddr: 0x0, symBinAddr: 0x1000039CC, symSize: 0x28 }
  - { offset: 0x9AB3, size: 0x8, addend: 0x0, symName: __ZN4Quad6is_hitE5Ray3f, symObjAddr: 0x0, symBinAddr: 0x1000039CC, symSize: 0x28 }
  - { offset: 0x9AE9, size: 0x8, addend: 0x0, symName: __ZN6Sphere7reflectE5Ray3f, symObjAddr: 0x28, symBinAddr: 0x1000039F4, symSize: 0x2C }
  - { offset: 0x9B1F, size: 0x8, addend: 0x0, symName: __ZN4Quad7reflectE5Ray3f, symObjAddr: 0x54, symBinAddr: 0x100003A20, symSize: 0x2C }
  - { offset: 0x9B55, size: 0x8, addend: 0x0, symName: __ZN6Sphere6is_hitE5Ray3f, symObjAddr: 0x80, symBinAddr: 0x100003A4C, symSize: 0x214 }
  - { offset: 0x9BC3, size: 0x8, addend: 0x0, symName: __Z9prod_scal8Vector3fS_, symObjAddr: 0x294, symBinAddr: 0x100003C60, symSize: 0x50 }
...
